
OshStep.elf:     file format elf32-littlearm

Sections:
Idx Name          Size      VMA       LMA       File off  Algn
  0 .text         0000235c  00080000  00080000  00008000  2**3
                  CONTENTS, ALLOC, LOAD, READONLY, CODE
  1 .relocate     0000006c  20000000  0008235c  00010000  2**2
                  CONTENTS, ALLOC, LOAD, DATA
  2 .bss          00000260  2000006c  000823c8  0001006c  2**2
                  ALLOC
  3 .stack        00009004  200002cc  00082628  0001006c  2**0
                  ALLOC
  4 .heap         00002000  200092d0  0008b62c  0001006c  2**0
                  ALLOC
  5 .ARM.attributes 00000029  00000000  00000000  0001006c  2**0
                  CONTENTS, READONLY
  6 .comment      0000005b  00000000  00000000  00010095  2**0
                  CONTENTS, READONLY
  7 .debug_info   00006976  00000000  00000000  000100f0  2**0
                  CONTENTS, READONLY, DEBUGGING
  8 .debug_abbrev 00001cc4  00000000  00000000  00016a66  2**0
                  CONTENTS, READONLY, DEBUGGING
  9 .debug_loc    000021a2  00000000  00000000  0001872a  2**0
                  CONTENTS, READONLY, DEBUGGING
 10 .debug_aranges 00000318  00000000  00000000  0001a8cc  2**0
                  CONTENTS, READONLY, DEBUGGING
 11 .debug_ranges 00000440  00000000  00000000  0001abe4  2**0
                  CONTENTS, READONLY, DEBUGGING
 12 .debug_macro  00013563  00000000  00000000  0001b024  2**0
                  CONTENTS, READONLY, DEBUGGING
 13 .debug_line   00004c21  00000000  00000000  0002e587  2**0
                  CONTENTS, READONLY, DEBUGGING
 14 .debug_str    00056e35  00000000  00000000  000331a8  2**0
                  CONTENTS, READONLY, DEBUGGING
 15 .debug_frame  00000a64  00000000  00000000  00089fe0  2**2
                  CONTENTS, READONLY, DEBUGGING
 16 .stab         0000003c  00000000  00000000  0008aa44  2**2
                  CONTENTS, READONLY, DEBUGGING
 17 .stabstr      00000076  00000000  00000000  0008aa80  2**0
                  CONTENTS, READONLY, DEBUGGING

Disassembly of section .text:

00080000 <_sfixed>:
   80000:	200092d0 	.word	0x200092d0
   80004:	0008014d 	.word	0x0008014d
   80008:	00080149 	.word	0x00080149
   8000c:	00080149 	.word	0x00080149
   80010:	00080149 	.word	0x00080149
   80014:	00080149 	.word	0x00080149
   80018:	00080149 	.word	0x00080149
	...
   8002c:	00080149 	.word	0x00080149
   80030:	00080149 	.word	0x00080149
   80034:	00000000 	.word	0x00000000
   80038:	00080149 	.word	0x00080149
   8003c:	00080149 	.word	0x00080149
   80040:	00080149 	.word	0x00080149
   80044:	00080149 	.word	0x00080149
   80048:	00080149 	.word	0x00080149
   8004c:	00080149 	.word	0x00080149
   80050:	00080149 	.word	0x00080149
   80054:	00080149 	.word	0x00080149
   80058:	00080149 	.word	0x00080149
   8005c:	00080149 	.word	0x00080149
   80060:	00080149 	.word	0x00080149
   80064:	00080149 	.word	0x00080149
   80068:	00000000 	.word	0x00000000
   8006c:	00080649 	.word	0x00080649
   80070:	00080659 	.word	0x00080659
   80074:	00080669 	.word	0x00080669
   80078:	00080679 	.word	0x00080679
	...
   80084:	00080149 	.word	0x00080149
   80088:	00080149 	.word	0x00080149
   8008c:	00080149 	.word	0x00080149
   80090:	00080149 	.word	0x00080149
   80094:	00080149 	.word	0x00080149
   80098:	00080149 	.word	0x00080149
   8009c:	00080149 	.word	0x00080149
   800a0:	00080149 	.word	0x00080149
   800a4:	00000000 	.word	0x00000000
   800a8:	00080149 	.word	0x00080149
   800ac:	00080245 	.word	0x00080245
   800b0:	00080149 	.word	0x00080149
   800b4:	00080149 	.word	0x00080149
   800b8:	00080149 	.word	0x00080149
   800bc:	00080149 	.word	0x00080149
   800c0:	00080149 	.word	0x00080149
   800c4:	00080149 	.word	0x00080149
   800c8:	00080149 	.word	0x00080149
   800cc:	00080149 	.word	0x00080149
   800d0:	00080149 	.word	0x00080149
   800d4:	00080149 	.word	0x00080149
   800d8:	00080149 	.word	0x00080149
   800dc:	00080149 	.word	0x00080149
   800e0:	00080149 	.word	0x00080149
   800e4:	00080149 	.word	0x00080149
   800e8:	00080149 	.word	0x00080149
   800ec:	00080149 	.word	0x00080149
   800f0:	00080149 	.word	0x00080149

000800f4 <__do_global_dtors_aux>:
   800f4:	b510      	push	{r4, lr}
   800f6:	4c05      	ldr	r4, [pc, #20]	; (8010c <__do_global_dtors_aux+0x18>)
   800f8:	7823      	ldrb	r3, [r4, #0]
   800fa:	b933      	cbnz	r3, 8010a <__do_global_dtors_aux+0x16>
   800fc:	4b04      	ldr	r3, [pc, #16]	; (80110 <__do_global_dtors_aux+0x1c>)
   800fe:	b113      	cbz	r3, 80106 <__do_global_dtors_aux+0x12>
   80100:	4804      	ldr	r0, [pc, #16]	; (80114 <__do_global_dtors_aux+0x20>)
   80102:	f3af 8000 	nop.w
   80106:	2301      	movs	r3, #1
   80108:	7023      	strb	r3, [r4, #0]
   8010a:	bd10      	pop	{r4, pc}
   8010c:	2000006c 	.word	0x2000006c
   80110:	00000000 	.word	0x00000000
   80114:	0008235c 	.word	0x0008235c

00080118 <frame_dummy>:
   80118:	b508      	push	{r3, lr}
   8011a:	4b06      	ldr	r3, [pc, #24]	; (80134 <frame_dummy+0x1c>)
   8011c:	b11b      	cbz	r3, 80126 <frame_dummy+0xe>
   8011e:	4806      	ldr	r0, [pc, #24]	; (80138 <frame_dummy+0x20>)
   80120:	4906      	ldr	r1, [pc, #24]	; (8013c <frame_dummy+0x24>)
   80122:	f3af 8000 	nop.w
   80126:	4806      	ldr	r0, [pc, #24]	; (80140 <frame_dummy+0x28>)
   80128:	6803      	ldr	r3, [r0, #0]
   8012a:	b113      	cbz	r3, 80132 <frame_dummy+0x1a>
   8012c:	4b05      	ldr	r3, [pc, #20]	; (80144 <frame_dummy+0x2c>)
   8012e:	b103      	cbz	r3, 80132 <frame_dummy+0x1a>
   80130:	4798      	blx	r3
   80132:	bd08      	pop	{r3, pc}
   80134:	00000000 	.word	0x00000000
   80138:	0008235c 	.word	0x0008235c
   8013c:	20000070 	.word	0x20000070
   80140:	0008235c 	.word	0x0008235c
   80144:	00000000 	.word	0x00000000

00080148 <Dummy_Handler>:

/**
 * \brief Default interrupt handler for unused IRQs.
 */
void Dummy_Handler(void)
{
   80148:	e7fe      	b.n	80148 <Dummy_Handler>
	...

0008014c <Reset_Handler>:

        /* Initialize the relocate segment */
        pSrc = &_etext;
        pDest = &_srelocate;

        if (pSrc != pDest) {
   8014c:	4b12      	ldr	r3, [pc, #72]	; (80198 <Reset_Handler+0x4c>)
   8014e:	4a13      	ldr	r2, [pc, #76]	; (8019c <Reset_Handler+0x50>)
/**
 * \brief This is the code that gets called on processor reset.
 * To initialize the device, and call the main() routine.
 */
void Reset_Handler(void)
{
   80150:	b510      	push	{r4, lr}

        /* Initialize the relocate segment */
        pSrc = &_etext;
        pDest = &_srelocate;

        if (pSrc != pDest) {
   80152:	4293      	cmp	r3, r2
   80154:	461c      	mov	r4, r3
   80156:	d001      	beq.n	8015c <Reset_Handler+0x10>
   80158:	2300      	movs	r3, #0
   8015a:	e001      	b.n	80160 <Reset_Handler+0x14>
   8015c:	4b10      	ldr	r3, [pc, #64]	; (801a0 <Reset_Handler+0x54>)
   8015e:	e007      	b.n	80170 <Reset_Handler+0x24>
                for (; pDest < &_erelocate;) {
   80160:	4910      	ldr	r1, [pc, #64]	; (801a4 <Reset_Handler+0x58>)
   80162:	18d0      	adds	r0, r2, r3
   80164:	4288      	cmp	r0, r1
   80166:	d2f9      	bcs.n	8015c <Reset_Handler+0x10>
                        *pDest++ = *pSrc++;
   80168:	58e1      	ldr	r1, [r4, r3]
   8016a:	50d1      	str	r1, [r2, r3]
   8016c:	3304      	adds	r3, #4
   8016e:	e7f7      	b.n	80160 <Reset_Handler+0x14>
                }
        }

        /* Clear the zero segment */
        for (pDest = &_szero; pDest < &_ezero;) {
   80170:	4a0d      	ldr	r2, [pc, #52]	; (801a8 <Reset_Handler+0x5c>)
   80172:	4293      	cmp	r3, r2
   80174:	d203      	bcs.n	8017e <Reset_Handler+0x32>
                *pDest++ = 0;
   80176:	2200      	movs	r2, #0
   80178:	f843 2b04 	str.w	r2, [r3], #4
   8017c:	e7f8      	b.n	80170 <Reset_Handler+0x24>
        }

        /* Set the vector table base address */
        pSrc = (uint32_t *) & _sfixed;
        SCB->VTOR = ((uint32_t) pSrc & SCB_VTOR_TBLOFF_Msk);
   8017e:	4b0b      	ldr	r3, [pc, #44]	; (801ac <Reset_Handler+0x60>)
   80180:	4a0b      	ldr	r2, [pc, #44]	; (801b0 <Reset_Handler+0x64>)
   80182:	f023 4360 	bic.w	r3, r3, #3758096384	; 0xe0000000
   80186:	f023 037f 	bic.w	r3, r3, #127	; 0x7f
   8018a:	6093      	str	r3, [r2, #8]

        /* Initialize the C library */
        __libc_init_array();
   8018c:	4b09      	ldr	r3, [pc, #36]	; (801b4 <Reset_Handler+0x68>)
   8018e:	4798      	blx	r3

        /* Branch to main function */
        main();
   80190:	4b09      	ldr	r3, [pc, #36]	; (801b8 <Reset_Handler+0x6c>)
   80192:	4798      	blx	r3
   80194:	e7fe      	b.n	80194 <Reset_Handler+0x48>
   80196:	bf00      	nop
   80198:	0008235c 	.word	0x0008235c
   8019c:	20000000 	.word	0x20000000
   801a0:	2000006c 	.word	0x2000006c
   801a4:	2000006c 	.word	0x2000006c
   801a8:	200002cc 	.word	0x200002cc
   801ac:	00080000 	.word	0x00080000
   801b0:	e000ed00 	.word	0xe000ed00
   801b4:	00081e81 	.word	0x00081e81
   801b8:	00080f71 	.word	0x00080f71

000801bc <SystemInit>:
 * Initialize the System and update the SystemFrequency variable.
 */
void SystemInit( void )
{
  /* Set FWS according to SYS_BOARD_MCKR configuration */
  EFC0->EEFC_FMR = EEFC_FMR_FWS(4);
   801bc:	4a1a      	ldr	r2, [pc, #104]	; (80228 <SystemInit+0x6c>)
   801be:	f44f 6380 	mov.w	r3, #1024	; 0x400
   801c2:	6013      	str	r3, [r2, #0]
  EFC1->EEFC_FMR = EEFC_FMR_FWS(4);
   801c4:	f8c2 3200 	str.w	r3, [r2, #512]	; 0x200

  /* Initialize main oscillator */
  if ( !(PMC->CKGR_MOR & CKGR_MOR_MOSCSEL) )
   801c8:	4b18      	ldr	r3, [pc, #96]	; (8022c <SystemInit+0x70>)
   801ca:	6a1a      	ldr	r2, [r3, #32]
   801cc:	01d2      	lsls	r2, r2, #7
   801ce:	d502      	bpl.n	801d6 <SystemInit+0x1a>
    {
    }
  }

  /* Switch to 3-20MHz Xtal oscillator */
  PMC->CKGR_MOR = CKGR_MOR_KEY_PASSWD | SYS_BOARD_OSCOUNT | CKGR_MOR_MOSCRCEN | CKGR_MOR_MOSCXTEN | CKGR_MOR_MOSCSEL;
   801d0:	4a17      	ldr	r2, [pc, #92]	; (80230 <SystemInit+0x74>)
   801d2:	621a      	str	r2, [r3, #32]

  while ( !(PMC->PMC_SR & PMC_SR_MOSCSELS) )
   801d4:	e005      	b.n	801e2 <SystemInit+0x26>
  EFC1->EEFC_FMR = EEFC_FMR_FWS(4);

  /* Initialize main oscillator */
  if ( !(PMC->CKGR_MOR & CKGR_MOR_MOSCSEL) )
  {
    PMC->CKGR_MOR = CKGR_MOR_KEY_PASSWD | SYS_BOARD_OSCOUNT | CKGR_MOR_MOSCRCEN | CKGR_MOR_MOSCXTEN;
   801d6:	4a17      	ldr	r2, [pc, #92]	; (80234 <SystemInit+0x78>)
   801d8:	621a      	str	r2, [r3, #32]
    while ( !(PMC->PMC_SR & PMC_SR_MOSCXTS) )
   801da:	6e9a      	ldr	r2, [r3, #104]	; 0x68
   801dc:	07d0      	lsls	r0, r2, #31
   801de:	d5fc      	bpl.n	801da <SystemInit+0x1e>
   801e0:	e7f6      	b.n	801d0 <SystemInit+0x14>
  }

  /* Switch to 3-20MHz Xtal oscillator */
  PMC->CKGR_MOR = CKGR_MOR_KEY_PASSWD | SYS_BOARD_OSCOUNT | CKGR_MOR_MOSCRCEN | CKGR_MOR_MOSCXTEN | CKGR_MOR_MOSCSEL;

  while ( !(PMC->PMC_SR & PMC_SR_MOSCSELS) )
   801e2:	6e99      	ldr	r1, [r3, #104]	; 0x68
   801e4:	4a11      	ldr	r2, [pc, #68]	; (8022c <SystemInit+0x70>)
   801e6:	03c9      	lsls	r1, r1, #15
   801e8:	d5fb      	bpl.n	801e2 <SystemInit+0x26>
  {
  }
 	PMC->PMC_MCKR = (PMC->PMC_MCKR & ~(uint32_t)PMC_MCKR_CSS_Msk) | PMC_MCKR_CSS_MAIN_CLK;
   801ea:	6b11      	ldr	r1, [r2, #48]	; 0x30
   801ec:	f021 0103 	bic.w	r1, r1, #3
   801f0:	f041 0101 	orr.w	r1, r1, #1
   801f4:	6311      	str	r1, [r2, #48]	; 0x30
  while (!(PMC->PMC_SR & PMC_SR_MCKRDY))
   801f6:	6e9a      	ldr	r2, [r3, #104]	; 0x68
   801f8:	0712      	lsls	r2, r2, #28
   801fa:	d5fc      	bpl.n	801f6 <SystemInit+0x3a>
  {
  }

  /* Initialize PLLA */
  PMC->CKGR_PLLAR = SYS_BOARD_PLLAR;
   801fc:	490e      	ldr	r1, [pc, #56]	; (80238 <SystemInit+0x7c>)
   801fe:	4a0b      	ldr	r2, [pc, #44]	; (8022c <SystemInit+0x70>)
   80200:	6291      	str	r1, [r2, #40]	; 0x28
  while ( !(PMC->PMC_SR & PMC_SR_LOCKA) )
   80202:	6e9a      	ldr	r2, [r3, #104]	; 0x68
   80204:	0790      	lsls	r0, r2, #30
   80206:	d5fc      	bpl.n	80202 <SystemInit+0x46>
  {
  }

  /* Switch to main clock */
  PMC->PMC_MCKR = (SYS_BOARD_MCKR & ~PMC_MCKR_CSS_Msk) | PMC_MCKR_CSS_MAIN_CLK;
   80208:	4a08      	ldr	r2, [pc, #32]	; (8022c <SystemInit+0x70>)
   8020a:	2111      	movs	r1, #17
   8020c:	6311      	str	r1, [r2, #48]	; 0x30
  while ( !(PMC->PMC_SR & PMC_SR_MCKRDY) )
   8020e:	6e9a      	ldr	r2, [r3, #104]	; 0x68
   80210:	0711      	lsls	r1, r2, #28
   80212:	d5fc      	bpl.n	8020e <SystemInit+0x52>
  {
  }

  /* Switch to PLLA */
  PMC->PMC_MCKR = SYS_BOARD_MCKR;
   80214:	4a05      	ldr	r2, [pc, #20]	; (8022c <SystemInit+0x70>)
   80216:	2112      	movs	r1, #18
   80218:	6311      	str	r1, [r2, #48]	; 0x30
  while ( !(PMC->PMC_SR & PMC_SR_MCKRDY) )
   8021a:	6e9a      	ldr	r2, [r3, #104]	; 0x68
   8021c:	0712      	lsls	r2, r2, #28
   8021e:	d5fc      	bpl.n	8021a <SystemInit+0x5e>
  {
  }

  SystemCoreClock = CHIP_FREQ_CPU_MAX;
   80220:	4a06      	ldr	r2, [pc, #24]	; (8023c <SystemInit+0x80>)
   80222:	4b07      	ldr	r3, [pc, #28]	; (80240 <SystemInit+0x84>)
   80224:	601a      	str	r2, [r3, #0]
   80226:	4770      	bx	lr
   80228:	400e0a00 	.word	0x400e0a00
   8022c:	400e0600 	.word	0x400e0600
   80230:	01370809 	.word	0x01370809
   80234:	00370809 	.word	0x00370809
   80238:	200d3f01 	.word	0x200d3f01
   8023c:	0501bd00 	.word	0x0501bd00
   80240:	20000000 	.word	0x20000000

00080244 <TC0_Handler>:
     // Reset counter (SWTRG) and enable counter clock(CLKEN)
     TC0->TC_CHANNEL[0].TC_CCR = TC_CCR_CLKEN | TC_CCR_SWTRG;

}

void TC0_Handler(void) {
   80244:	b508      	push	{r3, lr}
     __due_tc0_callback();
   80246:	4b02      	ldr	r3, [pc, #8]	; (80250 <TC0_Handler+0xc>)
   80248:	681b      	ldr	r3, [r3, #0]
   8024a:	4798      	blx	r3
   8024c:	bd08      	pop	{r3, pc}
   8024e:	bf00      	nop
   80250:	20000088 	.word	0x20000088

00080254 <_Z10pinSetMode4Porti4Mode>:
}

 void pinSetMode(Port p, int pin, Mode m) {
    switch (m) {
   80254:	2a03      	cmp	r2, #3
   80256:	f200 8094 	bhi.w	80382 <_Z10pinSetMode4Porti4Mode+0x12e>
   8025a:	e8df f002 	tbb	[pc, r2]
   8025e:	3b02      	.short	0x3b02
   80260:	7557      	.short	0x7557
      case INPUT:
        switch (p) {
   80262:	2803      	cmp	r0, #3
   80264:	f200 808d 	bhi.w	80382 <_Z10pinSetMode4Porti4Mode+0x12e>
   80268:	e8df f000 	tbb	[pc, r0]
   8026c:	281c0e02 	.word	0x281c0e02
          case A:
            // Enable clock if it isn't enabled
            if (~(PMC->PMC_PCSR0 >> ID_PIOA) & 0x1)
   80270:	4b44      	ldr	r3, [pc, #272]	; (80384 <_Z10pinSetMode4Porti4Mode+0x130>)
   80272:	699a      	ldr	r2, [r3, #24]
   80274:	0510      	lsls	r0, r2, #20
                PMC->PMC_PCER0 = 0x1u<<ID_PIOA;
   80276:	bf5c      	itt	pl
   80278:	f44f 6200 	movpl.w	r2, #2048	; 0x800
   8027c:	611a      	strpl	r2, [r3, #16]
            PIOA->PIO_PER=0x1u<<pin;
   8027e:	2301      	movs	r3, #1
   80280:	fa03 f101 	lsl.w	r1, r3, r1
   80284:	4b40      	ldr	r3, [pc, #256]	; (80388 <_Z10pinSetMode4Porti4Mode+0x134>)
   80286:	e00a      	b.n	8029e <_Z10pinSetMode4Porti4Mode+0x4a>
            PIOA->PIO_ODR=0x1u<<pin;
            break;
          case B:
            if (~(PMC->PMC_PCSR0 >> ID_PIOB) & 0x1)
   80288:	4b3e      	ldr	r3, [pc, #248]	; (80384 <_Z10pinSetMode4Porti4Mode+0x130>)
   8028a:	699a      	ldr	r2, [r3, #24]
   8028c:	04d2      	lsls	r2, r2, #19
                PMC->PMC_PCER0 = 0x1u<<ID_PIOB;
   8028e:	bf5c      	itt	pl
   80290:	f44f 5280 	movpl.w	r2, #4096	; 0x1000
   80294:	611a      	strpl	r2, [r3, #16]
            PIOB->PIO_PER=0x1u<<pin;
   80296:	2301      	movs	r3, #1
   80298:	fa03 f101 	lsl.w	r1, r3, r1
   8029c:	4b3b      	ldr	r3, [pc, #236]	; (8038c <_Z10pinSetMode4Porti4Mode+0x138>)
   8029e:	6019      	str	r1, [r3, #0]
            PIOB->PIO_ODR=0x1u<<pin;
   802a0:	6159      	str	r1, [r3, #20]
            break;
   802a2:	4770      	bx	lr
          case C:
            if (~(PMC->PMC_PCSR0 >> ID_PIOC) & 0x1)
   802a4:	4b37      	ldr	r3, [pc, #220]	; (80384 <_Z10pinSetMode4Porti4Mode+0x130>)
   802a6:	699a      	ldr	r2, [r3, #24]
   802a8:	0490      	lsls	r0, r2, #18
                PMC->PMC_PCER0 = 0x1u<<ID_PIOC;
   802aa:	bf5c      	itt	pl
   802ac:	f44f 5200 	movpl.w	r2, #8192	; 0x2000
   802b0:	611a      	strpl	r2, [r3, #16]
            PIOC->PIO_PER=0x1u<<pin;
   802b2:	2301      	movs	r3, #1
   802b4:	fa03 f101 	lsl.w	r1, r3, r1
   802b8:	4b35      	ldr	r3, [pc, #212]	; (80390 <_Z10pinSetMode4Porti4Mode+0x13c>)
   802ba:	e7f0      	b.n	8029e <_Z10pinSetMode4Porti4Mode+0x4a>
            PIOC->PIO_ODR=0x1u<<pin;
            break;
          case D:
            if (~(PMC->PMC_PCSR0 >> ID_PIOD) & 0x1)
   802bc:	4b31      	ldr	r3, [pc, #196]	; (80384 <_Z10pinSetMode4Porti4Mode+0x130>)
   802be:	699a      	ldr	r2, [r3, #24]
   802c0:	0452      	lsls	r2, r2, #17
                PMC->PMC_PCER0 = 0x1u<<ID_PIOD;
   802c2:	bf5c      	itt	pl
   802c4:	f44f 4280 	movpl.w	r2, #16384	; 0x4000
   802c8:	611a      	strpl	r2, [r3, #16]
            PIOD->PIO_PER=0x1u<<pin;
   802ca:	2301      	movs	r3, #1
   802cc:	fa03 f101 	lsl.w	r1, r3, r1
   802d0:	4b30      	ldr	r3, [pc, #192]	; (80394 <_Z10pinSetMode4Porti4Mode+0x140>)
   802d2:	e7e4      	b.n	8029e <_Z10pinSetMode4Porti4Mode+0x4a>
            PIOD->PIO_ODR=0x1u<<pin;
            break;
        }
        break;
      case OUTPUT:
        switch (p) {
   802d4:	2803      	cmp	r0, #3
   802d6:	d854      	bhi.n	80382 <_Z10pinSetMode4Porti4Mode+0x12e>
   802d8:	e8df f000 	tbb	[pc, r0]
   802dc:	110c0702 	.word	0x110c0702
          case A:
            PIOA->PIO_PER=0x1u<<pin;
   802e0:	2301      	movs	r3, #1
   802e2:	fa03 f101 	lsl.w	r1, r3, r1
   802e6:	4b28      	ldr	r3, [pc, #160]	; (80388 <_Z10pinSetMode4Porti4Mode+0x134>)
   802e8:	e00d      	b.n	80306 <_Z10pinSetMode4Porti4Mode+0xb2>
            PIOA->PIO_OER=0x1u<<pin;
            break;
          case B:
            PIOB->PIO_PER=0x1u<<pin;
   802ea:	2301      	movs	r3, #1
   802ec:	fa03 f101 	lsl.w	r1, r3, r1
   802f0:	4b26      	ldr	r3, [pc, #152]	; (8038c <_Z10pinSetMode4Porti4Mode+0x138>)
   802f2:	e008      	b.n	80306 <_Z10pinSetMode4Porti4Mode+0xb2>
            PIOB->PIO_OER=0x1u<<pin;
            break;
          case C:
            PIOC->PIO_PER=0x1u<<pin;
   802f4:	2301      	movs	r3, #1
   802f6:	fa03 f101 	lsl.w	r1, r3, r1
   802fa:	4b25      	ldr	r3, [pc, #148]	; (80390 <_Z10pinSetMode4Porti4Mode+0x13c>)
   802fc:	e003      	b.n	80306 <_Z10pinSetMode4Porti4Mode+0xb2>
            PIOC->PIO_OER=0x1u<<pin;
            break;
          case D:
            PIOD->PIO_PER=0x1u<<pin;
   802fe:	2301      	movs	r3, #1
   80300:	fa03 f101 	lsl.w	r1, r3, r1
   80304:	4b23      	ldr	r3, [pc, #140]	; (80394 <_Z10pinSetMode4Porti4Mode+0x140>)
   80306:	6019      	str	r1, [r3, #0]
            PIOD->PIO_OER=0x1u<<pin;
   80308:	6119      	str	r1, [r3, #16]
            break;
   8030a:	4770      	bx	lr
        }
        break;
      case PERIPHERAL_A:
        switch (p) {
   8030c:	2803      	cmp	r0, #3
   8030e:	d838      	bhi.n	80382 <_Z10pinSetMode4Porti4Mode+0x12e>
   80310:	e8df f000 	tbb	[pc, r0]
   80314:	110c0702 	.word	0x110c0702
          case A:
            PIOA->PIO_PDR=0x1u<<pin;
   80318:	2301      	movs	r3, #1
   8031a:	fa03 f101 	lsl.w	r1, r3, r1
   8031e:	4b1a      	ldr	r3, [pc, #104]	; (80388 <_Z10pinSetMode4Porti4Mode+0x134>)
   80320:	e00d      	b.n	8033e <_Z10pinSetMode4Porti4Mode+0xea>
            PIOA->PIO_ABSR &= ~(0x1u<<pin);
            break;
          case B:
            PIOB->PIO_PDR=0x1u<<pin;
   80322:	2301      	movs	r3, #1
   80324:	fa03 f101 	lsl.w	r1, r3, r1
   80328:	4b18      	ldr	r3, [pc, #96]	; (8038c <_Z10pinSetMode4Porti4Mode+0x138>)
   8032a:	e008      	b.n	8033e <_Z10pinSetMode4Porti4Mode+0xea>
            PIOB->PIO_ABSR &= ~(0x1u<<pin);
            break;
          case C:
            PIOC->PIO_PDR=0x1u<<pin;
   8032c:	2301      	movs	r3, #1
   8032e:	fa03 f101 	lsl.w	r1, r3, r1
   80332:	4b17      	ldr	r3, [pc, #92]	; (80390 <_Z10pinSetMode4Porti4Mode+0x13c>)
   80334:	e003      	b.n	8033e <_Z10pinSetMode4Porti4Mode+0xea>
            PIOC->PIO_ABSR &= ~(0x1u<<pin);
            break;
          case D:
            PIOD->PIO_PDR=0x1u<<pin;
   80336:	2301      	movs	r3, #1
   80338:	fa03 f101 	lsl.w	r1, r3, r1
   8033c:	4b15      	ldr	r3, [pc, #84]	; (80394 <_Z10pinSetMode4Porti4Mode+0x140>)
   8033e:	6059      	str	r1, [r3, #4]
            PIOD->PIO_ABSR &= ~(0x1u<<pin);
   80340:	6f1a      	ldr	r2, [r3, #112]	; 0x70
   80342:	ea22 0101 	bic.w	r1, r2, r1
   80346:	e01b      	b.n	80380 <_Z10pinSetMode4Porti4Mode+0x12c>
            break;
        }
        break;
      case PERIPHERAL_B:
        switch (p) {
   80348:	2803      	cmp	r0, #3
   8034a:	d81a      	bhi.n	80382 <_Z10pinSetMode4Porti4Mode+0x12e>
   8034c:	e8df f000 	tbb	[pc, r0]
   80350:	110c0702 	.word	0x110c0702
          case A:
            PIOA->PIO_PDR=0x1u<<pin;
   80354:	2301      	movs	r3, #1
   80356:	fa03 f101 	lsl.w	r1, r3, r1
   8035a:	4b0b      	ldr	r3, [pc, #44]	; (80388 <_Z10pinSetMode4Porti4Mode+0x134>)
   8035c:	e00d      	b.n	8037a <_Z10pinSetMode4Porti4Mode+0x126>
            PIOA->PIO_ABSR |=1 <<pin;
            break;
          case B:
            PIOB->PIO_PDR=0x1u<<pin;
   8035e:	2301      	movs	r3, #1
   80360:	fa03 f101 	lsl.w	r1, r3, r1
   80364:	4b09      	ldr	r3, [pc, #36]	; (8038c <_Z10pinSetMode4Porti4Mode+0x138>)
   80366:	e008      	b.n	8037a <_Z10pinSetMode4Porti4Mode+0x126>
            PIOB->PIO_ABSR |= 0x1u<<pin;
            break;
          case C:
            PIOC->PIO_PDR=0x1u<<pin;
   80368:	2301      	movs	r3, #1
   8036a:	fa03 f101 	lsl.w	r1, r3, r1
   8036e:	4b08      	ldr	r3, [pc, #32]	; (80390 <_Z10pinSetMode4Porti4Mode+0x13c>)
   80370:	e003      	b.n	8037a <_Z10pinSetMode4Porti4Mode+0x126>
            PIOC->PIO_ABSR |= 0x1u<<pin;
            break;
          case D:
            PIOD->PIO_PDR=0x1u<<pin;
   80372:	2301      	movs	r3, #1
   80374:	fa03 f101 	lsl.w	r1, r3, r1
   80378:	4b06      	ldr	r3, [pc, #24]	; (80394 <_Z10pinSetMode4Porti4Mode+0x140>)
   8037a:	6059      	str	r1, [r3, #4]
            PIOD->PIO_ABSR |= 0x1u<<pin;
   8037c:	6f1a      	ldr	r2, [r3, #112]	; 0x70
   8037e:	4311      	orrs	r1, r2
   80380:	6719      	str	r1, [r3, #112]	; 0x70
   80382:	4770      	bx	lr
   80384:	400e0600 	.word	0x400e0600
   80388:	400e0e00 	.word	0x400e0e00
   8038c:	400e1000 	.word	0x400e1000
   80390:	400e1200 	.word	0x400e1200
   80394:	400e1400 	.word	0x400e1400

00080398 <_Z15pinEnablePullup4Porti>:
          break;
    }
}

void pinEnablePullup(Port p, int pin) {
    switch (p) {
   80398:	2803      	cmp	r0, #3
   8039a:	d817      	bhi.n	803cc <_Z15pinEnablePullup4Porti+0x34>
   8039c:	e8df f000 	tbb	[pc, r0]
   803a0:	110c0702 	.word	0x110c0702
      case A:
        PIOA->PIO_PUER=0x1u<<pin;
   803a4:	2301      	movs	r3, #1
   803a6:	fa03 f101 	lsl.w	r1, r3, r1
   803aa:	4b09      	ldr	r3, [pc, #36]	; (803d0 <_Z15pinEnablePullup4Porti+0x38>)
   803ac:	e00d      	b.n	803ca <_Z15pinEnablePullup4Porti+0x32>
        break;
      case B:
        PIOB->PIO_PUER=0x1u<<pin;
   803ae:	2301      	movs	r3, #1
   803b0:	fa03 f101 	lsl.w	r1, r3, r1
   803b4:	4b07      	ldr	r3, [pc, #28]	; (803d4 <_Z15pinEnablePullup4Porti+0x3c>)
   803b6:	e008      	b.n	803ca <_Z15pinEnablePullup4Porti+0x32>
        break;
      case C:
        PIOC->PIO_PUER=0x1u<<pin;
   803b8:	2301      	movs	r3, #1
   803ba:	fa03 f101 	lsl.w	r1, r3, r1
   803be:	4b06      	ldr	r3, [pc, #24]	; (803d8 <_Z15pinEnablePullup4Porti+0x40>)
   803c0:	e003      	b.n	803ca <_Z15pinEnablePullup4Porti+0x32>
        break;
      case D:
        PIOD->PIO_PUER=0x1u<<pin;
   803c2:	2301      	movs	r3, #1
   803c4:	fa03 f101 	lsl.w	r1, r3, r1
   803c8:	4b04      	ldr	r3, [pc, #16]	; (803dc <_Z15pinEnablePullup4Porti+0x44>)
   803ca:	6659      	str	r1, [r3, #100]	; 0x64
   803cc:	4770      	bx	lr
   803ce:	bf00      	nop
   803d0:	400e0e00 	.word	0x400e0e00
   803d4:	400e1000 	.word	0x400e1000
   803d8:	400e1200 	.word	0x400e1200
   803dc:	400e1400 	.word	0x400e1400

000803e0 <_Z16pinDisablePullup4Porti>:
        break;
    }
}

void pinDisablePullup(Port p, int pin) {
    switch (p) {
   803e0:	2803      	cmp	r0, #3
   803e2:	d817      	bhi.n	80414 <_Z16pinDisablePullup4Porti+0x34>
   803e4:	e8df f000 	tbb	[pc, r0]
   803e8:	110c0702 	.word	0x110c0702
      case A:
        PIOA->PIO_PUDR=0x1u<<pin;
   803ec:	2301      	movs	r3, #1
   803ee:	fa03 f101 	lsl.w	r1, r3, r1
   803f2:	4b09      	ldr	r3, [pc, #36]	; (80418 <_Z16pinDisablePullup4Porti+0x38>)
   803f4:	e00d      	b.n	80412 <_Z16pinDisablePullup4Porti+0x32>
        break;
      case B:
        PIOB->PIO_PUDR=0x1u<<pin;
   803f6:	2301      	movs	r3, #1
   803f8:	fa03 f101 	lsl.w	r1, r3, r1
   803fc:	4b07      	ldr	r3, [pc, #28]	; (8041c <_Z16pinDisablePullup4Porti+0x3c>)
   803fe:	e008      	b.n	80412 <_Z16pinDisablePullup4Porti+0x32>
        break;
      case C:
        PIOC->PIO_PUDR=0x1u<<pin;
   80400:	2301      	movs	r3, #1
   80402:	fa03 f101 	lsl.w	r1, r3, r1
   80406:	4b06      	ldr	r3, [pc, #24]	; (80420 <_Z16pinDisablePullup4Porti+0x40>)
   80408:	e003      	b.n	80412 <_Z16pinDisablePullup4Porti+0x32>
        break;
      case D:
        PIOD->PIO_PUDR=0x1u<<pin;
   8040a:	2301      	movs	r3, #1
   8040c:	fa03 f101 	lsl.w	r1, r3, r1
   80410:	4b04      	ldr	r3, [pc, #16]	; (80424 <_Z16pinDisablePullup4Porti+0x44>)
   80412:	6619      	str	r1, [r3, #96]	; 0x60
   80414:	4770      	bx	lr
   80416:	bf00      	nop
   80418:	400e0e00 	.word	0x400e0e00
   8041c:	400e1000 	.word	0x400e1000
   80420:	400e1200 	.word	0x400e1200
   80424:	400e1400 	.word	0x400e1400

00080428 <_Z12pinSetOutput4Portii>:
        break;
    }
}

void pinSetOutput(Port p, int pin, int level) {
    switch (level) {
   80428:	b1e2      	cbz	r2, 80464 <_Z12pinSetOutput4Portii+0x3c>
   8042a:	2a01      	cmp	r2, #1
   8042c:	d134      	bne.n	80498 <_Z12pinSetOutput4Portii+0x70>
      case HIGH:
        switch (p) {
   8042e:	2803      	cmp	r0, #3
   80430:	d832      	bhi.n	80498 <_Z12pinSetOutput4Portii+0x70>
   80432:	e8df f000 	tbb	[pc, r0]
   80436:	0702      	.short	0x0702
   80438:	110c      	.short	0x110c
          case A:
            PIOA->PIO_SODR=0x1u<<pin;
   8043a:	2301      	movs	r3, #1
   8043c:	fa03 f101 	lsl.w	r1, r3, r1
   80440:	4b16      	ldr	r3, [pc, #88]	; (8049c <_Z12pinSetOutput4Portii+0x74>)
   80442:	e00d      	b.n	80460 <_Z12pinSetOutput4Portii+0x38>
            break;
          case B:
            PIOB->PIO_SODR=0x1u<<pin;
   80444:	2301      	movs	r3, #1
   80446:	fa03 f101 	lsl.w	r1, r3, r1
   8044a:	4b15      	ldr	r3, [pc, #84]	; (804a0 <_Z12pinSetOutput4Portii+0x78>)
   8044c:	e008      	b.n	80460 <_Z12pinSetOutput4Portii+0x38>
            break;
          case C:
            PIOC->PIO_SODR=0x1u<<pin;
   8044e:	2301      	movs	r3, #1
   80450:	fa03 f101 	lsl.w	r1, r3, r1
   80454:	4b13      	ldr	r3, [pc, #76]	; (804a4 <_Z12pinSetOutput4Portii+0x7c>)
   80456:	e003      	b.n	80460 <_Z12pinSetOutput4Portii+0x38>
            break;
          case D:
            PIOD->PIO_SODR=0x1u<<pin;
   80458:	2301      	movs	r3, #1
   8045a:	fa03 f101 	lsl.w	r1, r3, r1
   8045e:	4b12      	ldr	r3, [pc, #72]	; (804a8 <_Z12pinSetOutput4Portii+0x80>)
   80460:	6319      	str	r1, [r3, #48]	; 0x30
            break;
   80462:	4770      	bx	lr
        }
        break;
      case LOW:
        switch (p) {
   80464:	2803      	cmp	r0, #3
   80466:	d817      	bhi.n	80498 <_Z12pinSetOutput4Portii+0x70>
   80468:	e8df f000 	tbb	[pc, r0]
   8046c:	110c0702 	.word	0x110c0702
          case A:
            PIOA->PIO_CODR=0x1u<<pin;
   80470:	2301      	movs	r3, #1
   80472:	fa03 f101 	lsl.w	r1, r3, r1
   80476:	4b09      	ldr	r3, [pc, #36]	; (8049c <_Z12pinSetOutput4Portii+0x74>)
   80478:	e00d      	b.n	80496 <_Z12pinSetOutput4Portii+0x6e>
            break;
          case B:
            PIOB->PIO_CODR=0x1u<<pin;
   8047a:	2301      	movs	r3, #1
   8047c:	fa03 f101 	lsl.w	r1, r3, r1
   80480:	4b07      	ldr	r3, [pc, #28]	; (804a0 <_Z12pinSetOutput4Portii+0x78>)
   80482:	e008      	b.n	80496 <_Z12pinSetOutput4Portii+0x6e>
            break;
          case C:
            PIOC->PIO_CODR=0x1u<<pin;
   80484:	2301      	movs	r3, #1
   80486:	fa03 f101 	lsl.w	r1, r3, r1
   8048a:	4b06      	ldr	r3, [pc, #24]	; (804a4 <_Z12pinSetOutput4Portii+0x7c>)
   8048c:	e003      	b.n	80496 <_Z12pinSetOutput4Portii+0x6e>
            break;
          case D:
            PIOD->PIO_CODR=0x1u<<pin;
   8048e:	2301      	movs	r3, #1
   80490:	fa03 f101 	lsl.w	r1, r3, r1
   80494:	4b04      	ldr	r3, [pc, #16]	; (804a8 <_Z12pinSetOutput4Portii+0x80>)
   80496:	6359      	str	r1, [r3, #52]	; 0x34
   80498:	4770      	bx	lr
   8049a:	bf00      	nop
   8049c:	400e0e00 	.word	0x400e0e00
   804a0:	400e1000 	.word	0x400e1000
   804a4:	400e1200 	.word	0x400e1200
   804a8:	400e1400 	.word	0x400e1400

000804ac <_Z12pinReadInput4Porti>:
    }
    return -1;
}

int pinReadInput(Port p, int pin) {
    switch (p) {
   804ac:	2803      	cmp	r0, #3
   804ae:	d80f      	bhi.n	804d0 <_Z12pinReadInput4Porti+0x24>
   804b0:	e8df f000 	tbb	[pc, r0]
   804b4:	08060402 	.word	0x08060402
      case A:
        return (PIOA->PIO_PDSR >> pin) & 0x1;
   804b8:	4b07      	ldr	r3, [pc, #28]	; (804d8 <_Z12pinReadInput4Porti+0x2c>)
   804ba:	e004      	b.n	804c6 <_Z12pinReadInput4Porti+0x1a>
      case B:
        return (PIOB->PIO_PDSR >> pin) & 0x1;
   804bc:	4b07      	ldr	r3, [pc, #28]	; (804dc <_Z12pinReadInput4Porti+0x30>)
   804be:	e002      	b.n	804c6 <_Z12pinReadInput4Porti+0x1a>
      case C:
        return (PIOC->PIO_PDSR >> pin) & 0x1;
   804c0:	4b07      	ldr	r3, [pc, #28]	; (804e0 <_Z12pinReadInput4Porti+0x34>)
   804c2:	e000      	b.n	804c6 <_Z12pinReadInput4Porti+0x1a>
      case D:
        return (PIOD->PIO_PDSR >> pin) & 0x1;
   804c4:	4b07      	ldr	r3, [pc, #28]	; (804e4 <_Z12pinReadInput4Porti+0x38>)
   804c6:	6bd8      	ldr	r0, [r3, #60]	; 0x3c
   804c8:	40c8      	lsrs	r0, r1
   804ca:	f000 0001 	and.w	r0, r0, #1
   804ce:	4770      	bx	lr
    }
    return -1;
   804d0:	f04f 30ff 	mov.w	r0, #4294967295
}
   804d4:	4770      	bx	lr
   804d6:	bf00      	nop
   804d8:	400e0e00 	.word	0x400e0e00
   804dc:	400e1000 	.word	0x400e1000
   804e0:	400e1200 	.word	0x400e1200
   804e4:	400e1400 	.word	0x400e1400

000804e8 <_Z15attachInterrupt4PortiPFvS_iE>:

void attachInterrupt(Port p, int pin, void(*isr)(Port, int)) {
   804e8:	b510      	push	{r4, lr}
    // Initialize interrupt for Port
    volatile __IsrBank *isr_bank = 0;
    switch (p) {
   804ea:	2803      	cmp	r0, #3
   804ec:	d833      	bhi.n	80556 <_Z15attachInterrupt4PortiPFvS_iE+0x6e>
   804ee:	e8df f000 	tbb	[pc, r0]
   804f2:	0f02      	.short	0x0f02
   804f4:	2518      	.short	0x2518
      case A:
        isr_bank = &__isr_a;
        if (!(__isr_enabled_mask & __ISR_ENABLED_A)) {
   804f6:	4b2b      	ldr	r3, [pc, #172]	; (805a4 <_Z15attachInterrupt4PortiPFvS_iE+0xbc>)
   804f8:	781c      	ldrb	r4, [r3, #0]
   804fa:	f014 0f08 	tst.w	r4, #8
   804fe:	d12c      	bne.n	8055a <_Z15attachInterrupt4PortiPFvS_iE+0x72>
            __isr_enabled_mask |= __ISR_ENABLED_A;
   80500:	f044 0408 	orr.w	r4, r4, #8
   80504:	701c      	strb	r4, [r3, #0]

    \param [in]      IRQn  External interrupt number. Value cannot be negative.
 */
__STATIC_INLINE void NVIC_EnableIRQ(IRQn_Type IRQn)
{
  NVIC->ISER[((uint32_t)(IRQn) >> 5)] = (1 << ((uint32_t)(IRQn) & 0x1F)); /* enable interrupt */
   80506:	4b28      	ldr	r3, [pc, #160]	; (805a8 <_Z15attachInterrupt4PortiPFvS_iE+0xc0>)
   80508:	f44f 6400 	mov.w	r4, #2048	; 0x800
   8050c:	601c      	str	r4, [r3, #0]
   8050e:	e024      	b.n	8055a <_Z15attachInterrupt4PortiPFvS_iE+0x72>
            NVIC_EnableIRQ((IRQn_Type) ID_PIOA);
        }
        break;
      case B:
        isr_bank = &__isr_b;
        if (!(__isr_enabled_mask & __ISR_ENABLED_B)) {
   80510:	4b24      	ldr	r3, [pc, #144]	; (805a4 <_Z15attachInterrupt4PortiPFvS_iE+0xbc>)
   80512:	781b      	ldrb	r3, [r3, #0]
   80514:	075b      	lsls	r3, r3, #29
   80516:	d422      	bmi.n	8055e <_Z15attachInterrupt4PortiPFvS_iE+0x76>
   80518:	4b23      	ldr	r3, [pc, #140]	; (805a8 <_Z15attachInterrupt4PortiPFvS_iE+0xc0>)
   8051a:	f44f 5480 	mov.w	r4, #4096	; 0x1000
   8051e:	601c      	str	r4, [r3, #0]
   80520:	e01d      	b.n	8055e <_Z15attachInterrupt4PortiPFvS_iE+0x76>
            NVIC_EnableIRQ(PIOB_IRQn);  
        }
        break;
      case C:
        isr_bank = &__isr_c;
        if (!(__isr_enabled_mask & __ISR_ENABLED_C)) {
   80522:	4b20      	ldr	r3, [pc, #128]	; (805a4 <_Z15attachInterrupt4PortiPFvS_iE+0xbc>)
   80524:	781c      	ldrb	r4, [r3, #0]
   80526:	f014 0f02 	tst.w	r4, #2
   8052a:	d11a      	bne.n	80562 <_Z15attachInterrupt4PortiPFvS_iE+0x7a>
            __isr_enabled_mask |= __ISR_ENABLED_C;
   8052c:	f044 0402 	orr.w	r4, r4, #2
   80530:	701c      	strb	r4, [r3, #0]
   80532:	4b1d      	ldr	r3, [pc, #116]	; (805a8 <_Z15attachInterrupt4PortiPFvS_iE+0xc0>)
   80534:	f44f 5400 	mov.w	r4, #8192	; 0x2000
   80538:	601c      	str	r4, [r3, #0]
   8053a:	e012      	b.n	80562 <_Z15attachInterrupt4PortiPFvS_iE+0x7a>
            NVIC_EnableIRQ((IRQn_Type) ID_PIOC);
        }
        break;
      case D:
        isr_bank = &__isr_d;
        if (!(__isr_enabled_mask & __ISR_ENABLED_D)) {
   8053c:	4b19      	ldr	r3, [pc, #100]	; (805a4 <_Z15attachInterrupt4PortiPFvS_iE+0xbc>)
   8053e:	781c      	ldrb	r4, [r3, #0]
   80540:	f014 0f01 	tst.w	r4, #1
   80544:	d10f      	bne.n	80566 <_Z15attachInterrupt4PortiPFvS_iE+0x7e>
            __isr_enabled_mask |= __ISR_ENABLED_D;
   80546:	f044 0401 	orr.w	r4, r4, #1
   8054a:	701c      	strb	r4, [r3, #0]
   8054c:	4b16      	ldr	r3, [pc, #88]	; (805a8 <_Z15attachInterrupt4PortiPFvS_iE+0xc0>)
   8054e:	f44f 4480 	mov.w	r4, #16384	; 0x4000
   80552:	601c      	str	r4, [r3, #0]
   80554:	e007      	b.n	80566 <_Z15attachInterrupt4PortiPFvS_iE+0x7e>
    return -1;
}

void attachInterrupt(Port p, int pin, void(*isr)(Port, int)) {
    // Initialize interrupt for Port
    volatile __IsrBank *isr_bank = 0;
   80556:	2300      	movs	r3, #0
   80558:	e006      	b.n	80568 <_Z15attachInterrupt4PortiPFvS_iE+0x80>
    switch (p) {
      case A:
        isr_bank = &__isr_a;
   8055a:	4b14      	ldr	r3, [pc, #80]	; (805ac <_Z15attachInterrupt4PortiPFvS_iE+0xc4>)
   8055c:	e004      	b.n	80568 <_Z15attachInterrupt4PortiPFvS_iE+0x80>
            __isr_enabled_mask |= __ISR_ENABLED_A;
            NVIC_EnableIRQ((IRQn_Type) ID_PIOA);
        }
        break;
      case B:
        isr_bank = &__isr_b;
   8055e:	4b14      	ldr	r3, [pc, #80]	; (805b0 <_Z15attachInterrupt4PortiPFvS_iE+0xc8>)
   80560:	e002      	b.n	80568 <_Z15attachInterrupt4PortiPFvS_iE+0x80>
        if (!(__isr_enabled_mask & __ISR_ENABLED_B)) {
            NVIC_EnableIRQ(PIOB_IRQn);  
        }
        break;
      case C:
        isr_bank = &__isr_c;
   80562:	4b14      	ldr	r3, [pc, #80]	; (805b4 <_Z15attachInterrupt4PortiPFvS_iE+0xcc>)
   80564:	e000      	b.n	80568 <_Z15attachInterrupt4PortiPFvS_iE+0x80>
            __isr_enabled_mask |= __ISR_ENABLED_C;
            NVIC_EnableIRQ((IRQn_Type) ID_PIOC);
        }
        break;
      case D:
        isr_bank = &__isr_d;
   80566:	4b14      	ldr	r3, [pc, #80]	; (805b8 <_Z15attachInterrupt4PortiPFvS_iE+0xd0>)
            NVIC_EnableIRQ((IRQn_Type) ID_PIOD);
        }
        break;
    }

    (*isr_bank)[pin] = isr;
   80568:	f843 2021 	str.w	r2, [r3, r1, lsl #2]
    switch (p) {
   8056c:	2803      	cmp	r0, #3
   8056e:	d817      	bhi.n	805a0 <_Z15attachInterrupt4PortiPFvS_iE+0xb8>
   80570:	e8df f000 	tbb	[pc, r0]
   80574:	110c0702 	.word	0x110c0702
      case A:
        PIOA->PIO_IER = 0x1u << pin;
   80578:	2301      	movs	r3, #1
   8057a:	fa03 f101 	lsl.w	r1, r3, r1
   8057e:	4b0f      	ldr	r3, [pc, #60]	; (805bc <_Z15attachInterrupt4PortiPFvS_iE+0xd4>)
   80580:	e00d      	b.n	8059e <_Z15attachInterrupt4PortiPFvS_iE+0xb6>
        break;
      case B:
        PIOB->PIO_IER = 0x1u << pin;
   80582:	2301      	movs	r3, #1
   80584:	fa03 f101 	lsl.w	r1, r3, r1
   80588:	4b0d      	ldr	r3, [pc, #52]	; (805c0 <_Z15attachInterrupt4PortiPFvS_iE+0xd8>)
   8058a:	e008      	b.n	8059e <_Z15attachInterrupt4PortiPFvS_iE+0xb6>
        break;
      case C:
        PIOC->PIO_IER = 0x1u << pin;
   8058c:	2301      	movs	r3, #1
   8058e:	fa03 f101 	lsl.w	r1, r3, r1
   80592:	4b0c      	ldr	r3, [pc, #48]	; (805c4 <_Z15attachInterrupt4PortiPFvS_iE+0xdc>)
   80594:	e003      	b.n	8059e <_Z15attachInterrupt4PortiPFvS_iE+0xb6>
        break;
      case D:
        PIOD->PIO_IER = 0x1u << pin;
   80596:	2301      	movs	r3, #1
   80598:	fa03 f101 	lsl.w	r1, r3, r1
   8059c:	4b0a      	ldr	r3, [pc, #40]	; (805c8 <_Z15attachInterrupt4PortiPFvS_iE+0xe0>)
   8059e:	6419      	str	r1, [r3, #64]	; 0x40
   805a0:	bd10      	pop	{r4, pc}
   805a2:	bf00      	nop
   805a4:	2000008c 	.word	0x2000008c
   805a8:	e000e100 	.word	0xe000e100
   805ac:	20000090 	.word	0x20000090
   805b0:	20000110 	.word	0x20000110
   805b4:	20000190 	.word	0x20000190
   805b8:	20000210 	.word	0x20000210
   805bc:	400e0e00 	.word	0x400e0e00
   805c0:	400e1000 	.word	0x400e1000
   805c4:	400e1200 	.word	0x400e1200
   805c8:	400e1400 	.word	0x400e1400

000805cc <_Z6pioIsr4Port>:
    }

}

// This is some nonsense. I'm sorry. It should be really fast.
void pioIsr(Port p) {
   805cc:	b538      	push	{r3, r4, r5, lr}
   805ce:	4605      	mov	r5, r0
    int pin_mask = 0;
    volatile __IsrBank *isr_bank = 0;

    switch (p) {
   805d0:	2803      	cmp	r0, #3
   805d2:	d813      	bhi.n	805fc <_Z6pioIsr4Port+0x30>
   805d4:	e8df f000 	tbb	[pc, r0]
   805d8:	0e0a0602 	.word	0x0e0a0602
      case A:
        pin_mask = PIOA->PIO_ISR;
   805dc:	4b0f      	ldr	r3, [pc, #60]	; (8061c <_Z6pioIsr4Port+0x50>)
        isr_bank = &__isr_a;
   805de:	4c10      	ldr	r4, [pc, #64]	; (80620 <_Z6pioIsr4Port+0x54>)
    int pin_mask = 0;
    volatile __IsrBank *isr_bank = 0;

    switch (p) {
      case A:
        pin_mask = PIOA->PIO_ISR;
   805e0:	6cd8      	ldr	r0, [r3, #76]	; 0x4c
        isr_bank = &__isr_a;
        break;
   805e2:	e00d      	b.n	80600 <_Z6pioIsr4Port+0x34>
      case B:
        pin_mask = PIOB->PIO_ISR;
   805e4:	4b0f      	ldr	r3, [pc, #60]	; (80624 <_Z6pioIsr4Port+0x58>)
        isr_bank = &__isr_b;
   805e6:	4c10      	ldr	r4, [pc, #64]	; (80628 <_Z6pioIsr4Port+0x5c>)
      case A:
        pin_mask = PIOA->PIO_ISR;
        isr_bank = &__isr_a;
        break;
      case B:
        pin_mask = PIOB->PIO_ISR;
   805e8:	6cd8      	ldr	r0, [r3, #76]	; 0x4c
        isr_bank = &__isr_b;
        break;
   805ea:	e009      	b.n	80600 <_Z6pioIsr4Port+0x34>
      case C:
        pin_mask = PIOC->PIO_ISR;
   805ec:	4b0f      	ldr	r3, [pc, #60]	; (8062c <_Z6pioIsr4Port+0x60>)
        isr_bank = &__isr_c;
   805ee:	4c10      	ldr	r4, [pc, #64]	; (80630 <_Z6pioIsr4Port+0x64>)
      case B:
        pin_mask = PIOB->PIO_ISR;
        isr_bank = &__isr_b;
        break;
      case C:
        pin_mask = PIOC->PIO_ISR;
   805f0:	6cd8      	ldr	r0, [r3, #76]	; 0x4c
        isr_bank = &__isr_c;
        break;
   805f2:	e005      	b.n	80600 <_Z6pioIsr4Port+0x34>
      case D:
        pin_mask = PIOD->PIO_ISR;
   805f4:	4b0f      	ldr	r3, [pc, #60]	; (80634 <_Z6pioIsr4Port+0x68>)
        isr_bank = &__isr_d;
   805f6:	4c10      	ldr	r4, [pc, #64]	; (80638 <_Z6pioIsr4Port+0x6c>)
      case C:
        pin_mask = PIOC->PIO_ISR;
        isr_bank = &__isr_c;
        break;
      case D:
        pin_mask = PIOD->PIO_ISR;
   805f8:	6cd8      	ldr	r0, [r3, #76]	; 0x4c
        isr_bank = &__isr_d;
        break;
   805fa:	e001      	b.n	80600 <_Z6pioIsr4Port+0x34>
}

// This is some nonsense. I'm sorry. It should be really fast.
void pioIsr(Port p) {
    int pin_mask = 0;
    volatile __IsrBank *isr_bank = 0;
   805fc:	2400      	movs	r4, #0

}

// This is some nonsense. I'm sorry. It should be really fast.
void pioIsr(Port p) {
    int pin_mask = 0;
   805fe:	4620      	mov	r0, r4
        pin_mask = PIOD->PIO_ISR;
        isr_bank = &__isr_d;
        break;
    }
    
    int pin = log2(pin_mask);       // Convert the mask to a pin number quickly
   80600:	4b0e      	ldr	r3, [pc, #56]	; (8063c <_Z6pioIsr4Port+0x70>)
   80602:	4798      	blx	r3
   80604:	4b0e      	ldr	r3, [pc, #56]	; (80640 <_Z6pioIsr4Port+0x74>)
   80606:	4798      	blx	r3
   80608:	4b0e      	ldr	r3, [pc, #56]	; (80644 <_Z6pioIsr4Port+0x78>)
   8060a:	4798      	blx	r3
    __Isr isr = (*isr_bank)[pin];
   8060c:	f854 3020 	ldr.w	r3, [r4, r0, lsl #2]
        pin_mask = PIOD->PIO_ISR;
        isr_bank = &__isr_d;
        break;
    }
    
    int pin = log2(pin_mask);       // Convert the mask to a pin number quickly
   80610:	4601      	mov	r1, r0
    __Isr isr = (*isr_bank)[pin];

    if (isr != NULL) {
   80612:	b10b      	cbz	r3, 80618 <_Z6pioIsr4Port+0x4c>
        isr(p, pin);
   80614:	4628      	mov	r0, r5
   80616:	4798      	blx	r3
   80618:	bd38      	pop	{r3, r4, r5, pc}
   8061a:	bf00      	nop
   8061c:	400e0e00 	.word	0x400e0e00
   80620:	20000090 	.word	0x20000090
   80624:	400e1000 	.word	0x400e1000
   80628:	20000110 	.word	0x20000110
   8062c:	400e1200 	.word	0x400e1200
   80630:	20000190 	.word	0x20000190
   80634:	400e1400 	.word	0x400e1400
   80638:	20000210 	.word	0x20000210
   8063c:	00081815 	.word	0x00081815
   80640:	00081019 	.word	0x00081019
   80644:	00081e15 	.word	0x00081e15

00080648 <PIOA_Handler>:
    }
}

void PIOA_Handler(void) {
   80648:	b508      	push	{r3, lr}
    pioIsr(A);
   8064a:	2000      	movs	r0, #0
   8064c:	4b01      	ldr	r3, [pc, #4]	; (80654 <PIOA_Handler+0xc>)
   8064e:	4798      	blx	r3
   80650:	bd08      	pop	{r3, pc}
   80652:	bf00      	nop
   80654:	000805cd 	.word	0x000805cd

00080658 <PIOB_Handler>:
}

void PIOB_Handler(void) {
   80658:	b508      	push	{r3, lr}
    pioIsr(B);
   8065a:	2001      	movs	r0, #1
   8065c:	4b01      	ldr	r3, [pc, #4]	; (80664 <PIOB_Handler+0xc>)
   8065e:	4798      	blx	r3
   80660:	bd08      	pop	{r3, pc}
   80662:	bf00      	nop
   80664:	000805cd 	.word	0x000805cd

00080668 <PIOC_Handler>:
}

void PIOC_Handler(void) {
   80668:	b508      	push	{r3, lr}
    pioIsr(C);
   8066a:	2002      	movs	r0, #2
   8066c:	4b01      	ldr	r3, [pc, #4]	; (80674 <PIOC_Handler+0xc>)
   8066e:	4798      	blx	r3
   80670:	bd08      	pop	{r3, pc}
   80672:	bf00      	nop
   80674:	000805cd 	.word	0x000805cd

00080678 <PIOD_Handler>:
}

void PIOD_Handler(void) {
   80678:	b508      	push	{r3, lr}
    pioIsr(D);
   8067a:	2003      	movs	r0, #3
   8067c:	4b01      	ldr	r3, [pc, #4]	; (80684 <PIOD_Handler+0xc>)
   8067e:	4798      	blx	r3
   80680:	bd08      	pop	{r3, pc}
   80682:	bf00      	nop
   80684:	000805cd 	.word	0x000805cd

00080688 <_ZN7SSD13058InstanceEv>:

    SSD1305() {};
    SSD1305(SSD1305 const&);
    void operator=(SSD1305 const&);
  public:
    static SSD1305& Instance() {
   80688:	b510      	push	{r4, lr}
        static SSD1305 instance;
   8068a:	4c08      	ldr	r4, [pc, #32]	; (806ac <_ZN7SSD13058InstanceEv+0x24>)
   8068c:	6823      	ldr	r3, [r4, #0]
   8068e:	07db      	lsls	r3, r3, #31
   80690:	d409      	bmi.n	806a6 <_ZN7SSD13058InstanceEv+0x1e>
   80692:	4620      	mov	r0, r4
   80694:	4b06      	ldr	r3, [pc, #24]	; (806b0 <_ZN7SSD13058InstanceEv+0x28>)
   80696:	4798      	blx	r3
   80698:	b128      	cbz	r0, 806a6 <_ZN7SSD13058InstanceEv+0x1e>
    static const Port resPort   =  B;
    static const int  resPin    = 25;
    static const Port dcPort    =  C;
    static const int  dcPin     = 28;

    SSD1305() {};
   8069a:	4b06      	ldr	r3, [pc, #24]	; (806b4 <_ZN7SSD13058InstanceEv+0x2c>)
   8069c:	4a06      	ldr	r2, [pc, #24]	; (806b8 <_ZN7SSD13058InstanceEv+0x30>)
    SSD1305(SSD1305 const&);
    void operator=(SSD1305 const&);
  public:
    static SSD1305& Instance() {
        static SSD1305 instance;
   8069e:	4620      	mov	r0, r4
    static const Port resPort   =  B;
    static const int  resPin    = 25;
    static const Port dcPort    =  C;
    static const int  dcPin     = 28;

    SSD1305() {};
   806a0:	601a      	str	r2, [r3, #0]
    SSD1305(SSD1305 const&);
    void operator=(SSD1305 const&);
  public:
    static SSD1305& Instance() {
        static SSD1305 instance;
   806a2:	4b06      	ldr	r3, [pc, #24]	; (806bc <_ZN7SSD13058InstanceEv+0x34>)
   806a4:	4798      	blx	r3
        return instance;
    };
   806a6:	4803      	ldr	r0, [pc, #12]	; (806b4 <_ZN7SSD13058InstanceEv+0x2c>)
   806a8:	bd10      	pop	{r4, pc}
   806aa:	bf00      	nop
   806ac:	20000294 	.word	0x20000294
   806b0:	00080ff5 	.word	0x00080ff5
   806b4:	20000290 	.word	0x20000290
   806b8:	00082308 	.word	0x00082308
   806bc:	00081011 	.word	0x00081011

000806c0 <_ZN7DisplayC1Ev>:
#include "driver/SSD1305.h"
#include "../assets/images.h"

#include <math.h>

Display::Display() {
   806c0:	b530      	push	{r4, r5, lr}
   806c2:	4d0f      	ldr	r5, [pc, #60]	; (80700 <_ZN7DisplayC1Ev+0x40>)
   806c4:	f5ad 7d01 	sub.w	sp, sp, #516	; 0x204
   806c8:	4604      	mov	r4, r0
   806ca:	47a8      	blx	r5
    ssdp = SSD1305Params();
   806cc:	4668      	mov	r0, sp
   806ce:	47a8      	blx	r5
   806d0:	f44f 7200 	mov.w	r2, #512	; 0x200
   806d4:	4669      	mov	r1, sp
   806d6:	4620      	mov	r0, r4
   806d8:	4b0a      	ldr	r3, [pc, #40]	; (80704 <_ZN7DisplayC1Ev+0x44>)
   806da:	4798      	blx	r3
   806dc:	4668      	mov	r0, sp
   806de:	4b0a      	ldr	r3, [pc, #40]	; (80708 <_ZN7DisplayC1Ev+0x48>)
   806e0:	4798      	blx	r3
    ssdp.clear(PIXEL_OFF);
   806e2:	4620      	mov	r0, r4
   806e4:	2100      	movs	r1, #0
   806e6:	4b09      	ldr	r3, [pc, #36]	; (8070c <_ZN7DisplayC1Ev+0x4c>)
   806e8:	4798      	blx	r3
    SSD1305::Instance().open(NULL);
   806ea:	4b09      	ldr	r3, [pc, #36]	; (80710 <_ZN7DisplayC1Ev+0x50>)
   806ec:	4798      	blx	r3
   806ee:	6803      	ldr	r3, [r0, #0]
   806f0:	2100      	movs	r1, #0
   806f2:	681b      	ldr	r3, [r3, #0]
   806f4:	4798      	blx	r3
}
   806f6:	4620      	mov	r0, r4
   806f8:	f50d 7d01 	add.w	sp, sp, #516	; 0x204
   806fc:	bd30      	pop	{r4, r5, pc}
   806fe:	bf00      	nop
   80700:	00080a61 	.word	0x00080a61
   80704:	00081ecd 	.word	0x00081ecd
   80708:	00080a63 	.word	0x00080a63
   8070c:	00080aa3 	.word	0x00080aa3
   80710:	00080689 	.word	0x00080689

00080714 <_ZN7Display8drawTextEhh4FontPKc>:

void Display::drawBitmap( Bitmap &bmp) {
    bmp.draw(ssdp);
}

void Display::drawText( uint8_t x, uint8_t y, Font f, const char* str) {
   80714:	e92d 4ff0 	stmdb	sp!, {r4, r5, r6, r7, r8, r9, sl, fp, lr}
    int glyph_w, glyph_h;
    uint8_t x_origin = x;
    const unsigned char* bitmap_raw;
    
    if (f == LARGE_FONT) {
   80718:	2b01      	cmp	r3, #1

void Display::drawBitmap( Bitmap &bmp) {
    bmp.draw(ssdp);
}

void Display::drawText( uint8_t x, uint8_t y, Font f, const char* str) {
   8071a:	b08b      	sub	sp, #44	; 0x2c
   8071c:	9003      	str	r0, [sp, #12]
   8071e:	4688      	mov	r8, r1
   80720:	4617      	mov	r7, r2
    int glyph_w, glyph_h;
    uint8_t x_origin = x;
    const unsigned char* bitmap_raw;
    
    if (f == LARGE_FONT) {
   80722:	d103      	bne.n	8072c <_ZN7Display8drawTextEhh4FontPKc+0x18>
        bitmap_raw = font_large;
   80724:	492f      	ldr	r1, [pc, #188]	; (807e4 <_ZN7Display8drawTextEhh4FontPKc+0xd0>)
        glyph_w = 8;
        glyph_h = 32;
   80726:	2520      	movs	r5, #32
    uint8_t x_origin = x;
    const unsigned char* bitmap_raw;
    
    if (f == LARGE_FONT) {
        bitmap_raw = font_large;
        glyph_w = 8;
   80728:	2408      	movs	r4, #8
   8072a:	e002      	b.n	80732 <_ZN7Display8drawTextEhh4FontPKc+0x1e>
        glyph_h = 32;
    } else {    // default is SMALL_FONT
        bitmap_raw = font_small;
        glyph_w = 7;
        glyph_h = 7;
   8072c:	2507      	movs	r5, #7
    if (f == LARGE_FONT) {
        bitmap_raw = font_large;
        glyph_w = 8;
        glyph_h = 32;
    } else {    // default is SMALL_FONT
        bitmap_raw = font_small;
   8072e:	492e      	ldr	r1, [pc, #184]	; (807e8 <_ZN7Display8drawTextEhh4FontPKc+0xd4>)
        glyph_w = 7;
   80730:	462c      	mov	r4, r5
        glyph_h = 7;
    }

    Bitmap bmp(bitmap_raw);
   80732:	4b2e      	ldr	r3, [pc, #184]	; (807ec <_ZN7Display8drawTextEhh4FontPKc+0xd8>)
   80734:	a805      	add	r0, sp, #20
   80736:	4798      	blx	r3

    int glyph_map_w = (bmp.width / glyph_w) * glyph_w;
   80738:	9b08      	ldr	r3, [sp, #32]
   8073a:	fb93 f3f4 	sdiv	r3, r3, r4
   8073e:	fb04 f903 	mul.w	r9, r4, r3
   80742:	9b14      	ldr	r3, [sp, #80]	; 0x50
   80744:	f103 3aff 	add.w	sl, r3, #4294967295
        else if (str[i] >= 97 && str[i] <= 122) glyphPos = str[i] - 83; // a-z
        else                                    glyphPos = 12;          // ?
        
        // If this is a newline
        if (str[i] == 10) { 
            x = x_origin;
   80748:	4646      	mov	r6, r8

    Bitmap bmp(bitmap_raw);

    int glyph_map_w = (bmp.width / glyph_w) * glyph_w;
    
    for (int i = 0; str[i] != 0; i++) {
   8074a:	f81a 3f01 	ldrb.w	r3, [sl, #1]!
   8074e:	2b00      	cmp	r3, #0
   80750:	d045      	beq.n	807de <_ZN7Display8drawTextEhh4FontPKc+0xca>
        int glyphPos;
        if (str[i] == 32)                       glyphPos = 0;           // Space
   80752:	2b20      	cmp	r3, #32
   80754:	d020      	beq.n	80798 <_ZN7Display8drawTextEhh4FontPKc+0x84>
        else if (str[i] == 45)                  glyphPos = 1;           // -
   80756:	2b2d      	cmp	r3, #45	; 0x2d
   80758:	d03b      	beq.n	807d2 <_ZN7Display8drawTextEhh4FontPKc+0xbe>
        else if (str[i] >= 48 && str[i] <= 57)  glyphPos = str[i] - 46; // 0-9
   8075a:	f1a3 0230 	sub.w	r2, r3, #48	; 0x30
   8075e:	2a09      	cmp	r2, #9
   80760:	d802      	bhi.n	80768 <_ZN7Display8drawTextEhh4FontPKc+0x54>
   80762:	f1a3 022e 	sub.w	r2, r3, #46	; 0x2e
   80766:	e018      	b.n	8079a <_ZN7Display8drawTextEhh4FontPKc+0x86>
        else if (str[i] == 63)                  glyphPos = 12;          // ?
   80768:	2b3f      	cmp	r3, #63	; 0x3f
   8076a:	d034      	beq.n	807d6 <_ZN7Display8drawTextEhh4FontPKc+0xc2>
        else if (str[i] == 46)                  glyphPos = 13;          // .
   8076c:	2b2e      	cmp	r3, #46	; 0x2e
   8076e:	d034      	beq.n	807da <_ZN7Display8drawTextEhh4FontPKc+0xc6>
        else if (str[i] >= 65 && str[i] <= 90)  glyphPos = str[i] - 51; // A-Z
   80770:	f1a3 0241 	sub.w	r2, r3, #65	; 0x41
   80774:	2a19      	cmp	r2, #25
   80776:	d802      	bhi.n	8077e <_ZN7Display8drawTextEhh4FontPKc+0x6a>
   80778:	f1a3 0233 	sub.w	r2, r3, #51	; 0x33
   8077c:	e006      	b.n	8078c <_ZN7Display8drawTextEhh4FontPKc+0x78>
        else if (str[i] >= 97 && str[i] <= 122) glyphPos = str[i] - 83; // a-z
   8077e:	f1a3 0261 	sub.w	r2, r3, #97	; 0x61
   80782:	2a19      	cmp	r2, #25
   80784:	bf94      	ite	ls
   80786:	f1a3 0253 	subls.w	r2, r3, #83	; 0x53
        else                                    glyphPos = 12;          // ?
   8078a:	220c      	movhi	r2, #12
        
        // If this is a newline
        if (str[i] == 10) { 
   8078c:	2b0a      	cmp	r3, #10
   8078e:	d104      	bne.n	8079a <_ZN7Display8drawTextEhh4FontPKc+0x86>
            x = x_origin;
            y += glyph_h + 1;
   80790:	1c6b      	adds	r3, r5, #1
   80792:	441f      	add	r7, r3
   80794:	b2ff      	uxtb	r7, r7
   80796:	e7d7      	b.n	80748 <_ZN7Display8drawTextEhh4FontPKc+0x34>

    int glyph_map_w = (bmp.width / glyph_w) * glyph_w;
    
    for (int i = 0; str[i] != 0; i++) {
        int glyphPos;
        if (str[i] == 32)                       glyphPos = 0;           // Space
   80798:	2200      	movs	r2, #0
        // If this is a newline
        if (str[i] == 10) { 
            x = x_origin;
            y += glyph_h + 1;
        } else {
            bmp.setRectangle(   (glyphPos * glyph_w) % glyph_map_w,
   8079a:	4362      	muls	r2, r4
   8079c:	fb92 f3f9 	sdiv	r3, r2, r9
   807a0:	fb09 2113 	mls	r1, r9, r3, r2
            (((glyphPos * glyph_w) / glyph_map_w) * glyph_h),
            glyph_w, glyph_h);
   807a4:	436b      	muls	r3, r5
   807a6:	fa5f fb84 	uxtb.w	fp, r4
   807aa:	b2da      	uxtb	r2, r3
   807ac:	f8df c048 	ldr.w	ip, [pc, #72]	; 807f8 <_ZN7Display8drawTextEhh4FontPKc+0xe4>
   807b0:	a805      	add	r0, sp, #20
   807b2:	b2c9      	uxtb	r1, r1
   807b4:	465b      	mov	r3, fp
   807b6:	9500      	str	r5, [sp, #0]
   807b8:	47e0      	blx	ip
            bmp.moveTo(x, y);
   807ba:	4631      	mov	r1, r6
   807bc:	a805      	add	r0, sp, #20
   807be:	463a      	mov	r2, r7
   807c0:	4b0b      	ldr	r3, [pc, #44]	; (807f0 <_ZN7Display8drawTextEhh4FontPKc+0xdc>)
   807c2:	4798      	blx	r3
            bmp.draw(ssdp);
            x += glyph_w;
   807c4:	445e      	add	r6, fp
        } else {
            bmp.setRectangle(   (glyphPos * glyph_w) % glyph_map_w,
            (((glyphPos * glyph_w) / glyph_map_w) * glyph_h),
            glyph_w, glyph_h);
            bmp.moveTo(x, y);
            bmp.draw(ssdp);
   807c6:	a805      	add	r0, sp, #20
   807c8:	9903      	ldr	r1, [sp, #12]
   807ca:	4b0a      	ldr	r3, [pc, #40]	; (807f4 <_ZN7Display8drawTextEhh4FontPKc+0xe0>)
   807cc:	4798      	blx	r3
            x += glyph_w;
   807ce:	b2f6      	uxtb	r6, r6
   807d0:	e7bb      	b.n	8074a <_ZN7Display8drawTextEhh4FontPKc+0x36>
    int glyph_map_w = (bmp.width / glyph_w) * glyph_w;
    
    for (int i = 0; str[i] != 0; i++) {
        int glyphPos;
        if (str[i] == 32)                       glyphPos = 0;           // Space
        else if (str[i] == 45)                  glyphPos = 1;           // -
   807d2:	2201      	movs	r2, #1
   807d4:	e7e1      	b.n	8079a <_ZN7Display8drawTextEhh4FontPKc+0x86>
        else if (str[i] >= 48 && str[i] <= 57)  glyphPos = str[i] - 46; // 0-9
        else if (str[i] == 63)                  glyphPos = 12;          // ?
   807d6:	220c      	movs	r2, #12
   807d8:	e7df      	b.n	8079a <_ZN7Display8drawTextEhh4FontPKc+0x86>
        else if (str[i] == 46)                  glyphPos = 13;          // .
   807da:	220d      	movs	r2, #13
   807dc:	e7dd      	b.n	8079a <_ZN7Display8drawTextEhh4FontPKc+0x86>
            bmp.moveTo(x, y);
            bmp.draw(ssdp);
            x += glyph_w;
        }
    }
}
   807de:	b00b      	add	sp, #44	; 0x2c
   807e0:	e8bd 8ff0 	ldmia.w	sp!, {r4, r5, r6, r7, r8, r9, sl, fp, pc}
   807e4:	000820ce 	.word	0x000820ce
   807e8:	00081f8c 	.word	0x00081f8c
   807ec:	00080825 	.word	0x00080825
   807f0:	00080849 	.word	0x00080849
   807f4:	0008085d 	.word	0x0008085d
   807f8:	0008084f 	.word	0x0008084f

000807fc <_ZN7Display5clearEv>:

void Display::drawPixel(int x, int y) {
    ssdp.setPixel(x, y, PIXEL_ON);
}

void Display::clear() {
   807fc:	b508      	push	{r3, lr}
    ssdp.clear(PIXEL_OFF);
   807fe:	2100      	movs	r1, #0
   80800:	4b01      	ldr	r3, [pc, #4]	; (80808 <_ZN7Display5clearEv+0xc>)
   80802:	4798      	blx	r3
   80804:	bd08      	pop	{r3, pc}
   80806:	bf00      	nop
   80808:	00080aa3 	.word	0x00080aa3

0008080c <_ZN7Display5paintEv>:
}

void Display::paint() {
   8080c:	b510      	push	{r4, lr}
    SSD1305::Instance().write(&ssdp);
   8080e:	4b04      	ldr	r3, [pc, #16]	; (80820 <_ZN7Display5paintEv+0x14>)

void Display::clear() {
    ssdp.clear(PIXEL_OFF);
}

void Display::paint() {
   80810:	4604      	mov	r4, r0
    SSD1305::Instance().write(&ssdp);
   80812:	4798      	blx	r3
   80814:	6803      	ldr	r3, [r0, #0]
   80816:	4621      	mov	r1, r4
   80818:	689b      	ldr	r3, [r3, #8]
   8081a:	4798      	blx	r3
   8081c:	bd10      	pop	{r4, pc}
   8081e:	bf00      	nop
   80820:	00080689 	.word	0x00080689

00080824 <_ZN6BitmapC1EPKh>:

Bitmap::Bitmap(uint8_t x, uint8_t y, const unsigned char* bmp) {
    init(0, 0, (uint8_t)bmp[0], (uint8_t)bmp[1], x, y, bmp);
}

Bitmap::Bitmap(const unsigned char* bmp) {
   80824:	b530      	push	{r4, r5, lr}
    init(0, 0, (uint8_t)bmp[0], (uint8_t)bmp[1], 0, 0, bmp);
   80826:	780d      	ldrb	r5, [r1, #0]
   80828:	784c      	ldrb	r4, [r1, #1]
}

void Bitmap::init(uint8_t r_x, uint8_t r_y, uint8_t r_w, uint8_t r_h, 
                  uint8_t x, uint8_t y, const unsigned char* bmp) {
    this->r_x = r_x;
   8082a:	2200      	movs	r2, #0
   8082c:	7082      	strb	r2, [r0, #2]
    this->r_y = r_y;
   8082e:	70c2      	strb	r2, [r0, #3]
    this->r_w = r_w;
   80830:	7105      	strb	r5, [r0, #4]
    this->r_h = r_h;
   80832:	7144      	strb	r4, [r0, #5]

    this->x = x;
   80834:	7002      	strb	r2, [r0, #0]
    this->y = y;
   80836:	7042      	strb	r2, [r0, #1]

    width = bmp[0];
   80838:	780a      	ldrb	r2, [r1, #0]
    height = bmp[1];

    bitmap = &bmp[2];
   8083a:	3102      	adds	r1, #2
    this->r_h = r_h;

    this->x = x;
    this->y = y;

    width = bmp[0];
   8083c:	60c2      	str	r2, [r0, #12]
    height = bmp[1];
   8083e:	f811 2c01 	ldrb.w	r2, [r1, #-1]

    bitmap = &bmp[2];
   80842:	6081      	str	r1, [r0, #8]

    this->x = x;
    this->y = y;

    width = bmp[0];
    height = bmp[1];
   80844:	6102      	str	r2, [r0, #16]
    init(0, 0, (uint8_t)bmp[0], (uint8_t)bmp[1], x, y, bmp);
}

Bitmap::Bitmap(const unsigned char* bmp) {
    init(0, 0, (uint8_t)bmp[0], (uint8_t)bmp[1], 0, 0, bmp);
}
   80846:	bd30      	pop	{r4, r5, pc}

00080848 <_ZN6Bitmap6moveToEhh>:

    bitmap = &bmp[2];
}

void Bitmap::moveTo(uint8_t x, uint8_t y) {
    this->x = x;
   80848:	7001      	strb	r1, [r0, #0]
    this->y = y;
   8084a:	7042      	strb	r2, [r0, #1]
   8084c:	4770      	bx	lr

0008084e <_ZN6Bitmap12setRectangleEhhhh>:
}

void Bitmap::setRectangle(uint8_t r_x, uint8_t r_y, uint8_t r_w, uint8_t r_h) {
    this->r_x = r_x;
    this->r_y = r_y;
    this->r_w = r_w;
   8084e:	7103      	strb	r3, [r0, #4]
    this->r_h = r_h;
   80850:	f89d 3000 	ldrb.w	r3, [sp]
uint8_t Bitmap::getY() {
    return y;
}

void Bitmap::setRectangle(uint8_t r_x, uint8_t r_y, uint8_t r_w, uint8_t r_h) {
    this->r_x = r_x;
   80854:	7081      	strb	r1, [r0, #2]
    this->r_y = r_y;
   80856:	70c2      	strb	r2, [r0, #3]
    this->r_w = r_w;
    this->r_h = r_h;
   80858:	7143      	strb	r3, [r0, #5]
   8085a:	4770      	bx	lr

0008085c <_ZN6Bitmap4drawER13SSD1305Params>:

uint8_t Bitmap::getRectH() {
    return r_h;
}

void Bitmap::draw(SSD1305Params &ssdp) {
   8085c:	e92d 43f8 	stmdb	sp!, {r3, r4, r5, r6, r7, r8, r9, lr}
   80860:	4604      	mov	r4, r0
   80862:	4688      	mov	r8, r1
    for (uint8_t d_y = 0; d_y < r_h; d_y++) {
   80864:	2600      	movs	r6, #0
   80866:	7963      	ldrb	r3, [r4, #5]
   80868:	b2f5      	uxtb	r5, r6
   8086a:	42ab      	cmp	r3, r5
   8086c:	d926      	bls.n	808bc <_ZN6Bitmap4drawER13SSD1305Params+0x60>
   8086e:	2300      	movs	r3, #0
   80870:	b2da      	uxtb	r2, r3
   80872:	f103 0901 	add.w	r9, r3, #1
        for (uint8_t d_x = 0; d_x < r_w; d_x++) {
   80876:	7923      	ldrb	r3, [r4, #4]
   80878:	4293      	cmp	r3, r2
   8087a:	d91d      	bls.n	808b8 <_ZN6Bitmap4drawER13SSD1305Params+0x5c>
            uint8_t disp_x = x + d_x;
   8087c:	7823      	ldrb	r3, [r4, #0]
            uint8_t disp_y = y + d_y;

            int bmp_addr = ((r_x + d_x) + ((r_y + d_y) * width)) / 8;
   8087e:	78a7      	ldrb	r7, [r4, #2]
   80880:	68e1      	ldr	r1, [r4, #12]
   80882:	4417      	add	r7, r2
}

void Bitmap::draw(SSD1305Params &ssdp) {
    for (uint8_t d_y = 0; d_y < r_h; d_y++) {
        for (uint8_t d_x = 0; d_x < r_w; d_x++) {
            uint8_t disp_x = x + d_x;
   80884:	441a      	add	r2, r3
            uint8_t disp_y = y + d_y;

            int bmp_addr = ((r_x + d_x) + ((r_y + d_y) * width)) / 8;
   80886:	78e3      	ldrb	r3, [r4, #3]

void Bitmap::draw(SSD1305Params &ssdp) {
    for (uint8_t d_y = 0; d_y < r_h; d_y++) {
        for (uint8_t d_x = 0; d_x < r_w; d_x++) {
            uint8_t disp_x = x + d_x;
            uint8_t disp_y = y + d_y;
   80888:	f894 e001 	ldrb.w	lr, [r4, #1]

            int bmp_addr = ((r_x + d_x) + ((r_y + d_y) * width)) / 8;
   8088c:	442b      	add	r3, r5
   8088e:	fb01 7303 	mla	r3, r1, r3, r7
   80892:	2108      	movs	r1, #8
   80894:	fb93 f3f1 	sdiv	r3, r3, r1

            int pix_status =
                (bitmap[bmp_addr] & (0x1 << ((r_x + d_x) % 8))) ?
                PIXEL_ON : PIXEL_OFF;
   80898:	68a1      	ldr	r1, [r4, #8]
            uint8_t disp_y = y + d_y;

            int bmp_addr = ((r_x + d_x) + ((r_y + d_y) * width)) / 8;

            int pix_status =
                (bitmap[bmp_addr] & (0x1 << ((r_x + d_x) % 8))) ?
   8089a:	f007 0707 	and.w	r7, r7, #7
                PIXEL_ON : PIXEL_OFF;
   8089e:	5ccb      	ldrb	r3, [r1, r3]

void Bitmap::draw(SSD1305Params &ssdp) {
    for (uint8_t d_y = 0; d_y < r_h; d_y++) {
        for (uint8_t d_x = 0; d_x < r_w; d_x++) {
            uint8_t disp_x = x + d_x;
            uint8_t disp_y = y + d_y;
   808a0:	44ae      	add	lr, r5

            int bmp_addr = ((r_x + d_x) + ((r_y + d_y) * width)) / 8;

            int pix_status =
                (bitmap[bmp_addr] & (0x1 << ((r_x + d_x) % 8))) ?
                PIXEL_ON : PIXEL_OFF;
   808a2:	413b      	asrs	r3, r7

            ssdp.setPixel(disp_x, disp_y, pix_status);
   808a4:	b2d1      	uxtb	r1, r2
   808a6:	f003 0301 	and.w	r3, r3, #1
   808aa:	4640      	mov	r0, r8
   808ac:	fa5f f28e 	uxtb.w	r2, lr
   808b0:	4f03      	ldr	r7, [pc, #12]	; (808c0 <_ZN6Bitmap4drawER13SSD1305Params+0x64>)
   808b2:	47b8      	blx	r7
   808b4:	464b      	mov	r3, r9
   808b6:	e7db      	b.n	80870 <_ZN6Bitmap4drawER13SSD1305Params+0x14>
   808b8:	3601      	adds	r6, #1
   808ba:	e7d4      	b.n	80866 <_ZN6Bitmap4drawER13SSD1305Params+0xa>
   808bc:	e8bd 83f8 	ldmia.w	sp!, {r3, r4, r5, r6, r7, r8, r9, pc}
   808c0:	00080a65 	.word	0x00080a65

000808c4 <_ZN8Encoders5closeEv>:
    return 0;
}

int Encoders::close() {
    return 0;
}
   808c4:	2000      	movs	r0, #0
   808c6:	4770      	bx	lr

000808c8 <_ZN8Encoders5writeEPv>:

int Encoders::write(void* p) {
    return 0;
}
   808c8:	2000      	movs	r0, #0
   808ca:	4770      	bx	lr

000808cc <_ZN8Encoders4readEv>:

void *Encoders::read() {
    for (int i = 0; i < 4; i++) {
   808cc:	2300      	movs	r3, #0
   808ce:	eb00 0243 	add.w	r2, r0, r3, lsl #1
        readStatus.relative_position[i] = status.relative_position[i];
   808d2:	8891      	ldrh	r1, [r2, #4]
int Encoders::write(void* p) {
    return 0;
}

void *Encoders::read() {
    for (int i = 0; i < 4; i++) {
   808d4:	3301      	adds	r3, #1
        readStatus.relative_position[i] = status.relative_position[i];
   808d6:	8191      	strh	r1, [r2, #12]
int Encoders::write(void* p) {
    return 0;
}

void *Encoders::read() {
    for (int i = 0; i < 4; i++) {
   808d8:	2b04      	cmp	r3, #4
        readStatus.relative_position[i] = status.relative_position[i];
        status.relative_position[i] = 0;
   808da:	f04f 0100 	mov.w	r1, #0
   808de:	8091      	strh	r1, [r2, #4]
int Encoders::write(void* p) {
    return 0;
}

void *Encoders::read() {
    for (int i = 0; i < 4; i++) {
   808e0:	d1f5      	bne.n	808ce <_ZN8Encoders4readEv+0x2>
        readStatus.relative_position[i] = status.relative_position[i];
        status.relative_position[i] = 0;
    }
    
    return (void*)&readStatus;
}
   808e2:	300c      	adds	r0, #12
   808e4:	4770      	bx	lr

000808e6 <_ZN8Encoders5ioctlEiPv>:

 void *Encoders::ioctl(int ioctl_t, void *params) {
    return (void*)0;
 }
   808e6:	2000      	movs	r0, #0
   808e8:	4770      	bx	lr
	...

000808ec <_ZN8Encoders4openEPv>:
Port const Encoders::aPorts[] = {B,  A,  D, D};
int  const Encoders::aPins[]  = {26, 15, 1, 3};
Port const Encoders::bPorts[] = {A,  D,  D, D};
int  const Encoders::bPins[]  = {14, 0,  2, 6};

int Encoders::open(void* p) {
   808ec:	e92d 4ff7 	stmdb	sp!, {r0, r1, r2, r4, r5, r6, r7, r8, r9, sl, fp, lr}
   808f0:	4607      	mov	r7, r0
    /* Set up our IO */
    for (int i = 0; i < 4; i++) {
   808f2:	2400      	movs	r4, #0
        // Enable, set to input
        pinSetMode(aPorts[i], aPins[i], INPUT);
   808f4:	f8df a0b0 	ldr.w	sl, [pc, #176]	; 809a8 <_ZN8Encoders4openEPv+0xbc>
   808f8:	f8df 90b0 	ldr.w	r9, [pc, #176]	; 809ac <_ZN8Encoders4openEPv+0xc0>
   808fc:	f814 600a 	ldrb.w	r6, [r4, sl]
   80900:	f859 5024 	ldr.w	r5, [r9, r4, lsl #2]
   80904:	f8df c0a8 	ldr.w	ip, [pc, #168]	; 809b0 <_ZN8Encoders4openEPv+0xc4>
   80908:	4630      	mov	r0, r6
   8090a:	4629      	mov	r1, r5
   8090c:	2200      	movs	r2, #0
   8090e:	f8cd c004 	str.w	ip, [sp, #4]
   80912:	47e0      	blx	ip
        pinSetMode(bPorts[i], bPins[i], INPUT);
   80914:	f8df 809c 	ldr.w	r8, [pc, #156]	; 809b4 <_ZN8Encoders4openEPv+0xc8>
   80918:	4a1e      	ldr	r2, [pc, #120]	; (80994 <_ZN8Encoders4openEPv+0xa8>)
   8091a:	f814 3008 	ldrb.w	r3, [r4, r8]
   8091e:	f852 b024 	ldr.w	fp, [r2, r4, lsl #2]
   80922:	4618      	mov	r0, r3
   80924:	f8dd c004 	ldr.w	ip, [sp, #4]
   80928:	9300      	str	r3, [sp, #0]
   8092a:	4659      	mov	r1, fp
   8092c:	2200      	movs	r2, #0
   8092e:	47e0      	blx	ip

        // Enable pull-ups
        pinEnablePullup(aPorts[i], aPins[i]);
   80930:	4a19      	ldr	r2, [pc, #100]	; (80998 <_ZN8Encoders4openEPv+0xac>)
   80932:	4630      	mov	r0, r6
   80934:	4629      	mov	r1, r5
   80936:	9201      	str	r2, [sp, #4]
   80938:	4790      	blx	r2
        pinEnablePullup(bPorts[i], bPins[i]);
   8093a:	9b00      	ldr	r3, [sp, #0]
   8093c:	4659      	mov	r1, fp
   8093e:	4618      	mov	r0, r3
   80940:	9a01      	ldr	r2, [sp, #4]
   80942:	4790      	blx	r2
Port const Encoders::bPorts[] = {A,  D,  D, D};
int  const Encoders::bPins[]  = {14, 0,  2, 6};

int Encoders::open(void* p) {
    /* Set up our IO */
    for (int i = 0; i < 4; i++) {
   80944:	3401      	adds	r4, #1

        // Enable pull-ups
        pinEnablePullup(aPorts[i], aPins[i]);
        pinEnablePullup(bPorts[i], bPins[i]);

        attachInterrupt(aPorts[i], aPins[i], &__encoders_isr);
   80946:	4630      	mov	r0, r6
   80948:	4629      	mov	r1, r5
   8094a:	4a14      	ldr	r2, [pc, #80]	; (8099c <_ZN8Encoders4openEPv+0xb0>)
   8094c:	4b14      	ldr	r3, [pc, #80]	; (809a0 <_ZN8Encoders4openEPv+0xb4>)
   8094e:	4798      	blx	r3
Port const Encoders::bPorts[] = {A,  D,  D, D};
int  const Encoders::bPins[]  = {14, 0,  2, 6};

int Encoders::open(void* p) {
    /* Set up our IO */
    for (int i = 0; i < 4; i++) {
   80950:	2c04      	cmp	r4, #4
   80952:	4e10      	ldr	r6, [pc, #64]	; (80994 <_ZN8Encoders4openEPv+0xa8>)
   80954:	d1ce      	bne.n	808f4 <_ZN8Encoders4openEPv+0x8>
   80956:	2400      	movs	r4, #0
    d->prev = c;
    */
    /* Read values, assign states */
    for (int i = 0; i < 4; i++) {
        // States are in the form of 0b000000ab
        states[i] = (pinReadInput(aPorts[i], aPins[i]) << 1) | pinReadInput(bPorts[i], bPins[i]);
   80958:	f859 1024 	ldr.w	r1, [r9, r4, lsl #2]
   8095c:	f81a 0004 	ldrb.w	r0, [sl, r4]
   80960:	4d10      	ldr	r5, [pc, #64]	; (809a4 <_ZN8Encoders4openEPv+0xb8>)
   80962:	47a8      	blx	r5
   80964:	f856 1024 	ldr.w	r1, [r6, r4, lsl #2]
   80968:	4683      	mov	fp, r0
   8096a:	f818 0004 	ldrb.w	r0, [r8, r4]
   8096e:	47a8      	blx	r5
   80970:	ea40 004b 	orr.w	r0, r0, fp, lsl #1
   80974:	193b      	adds	r3, r7, r4
   80976:	fa5f fb80 	uxtb.w	fp, r0
   8097a:	f883 b014 	strb.w	fp, [r3, #20]
            sprintf(panic_text, "Invalid state encoder %d", i);
            Reporting::Instance().reportText(PRIORITY_PANIC, panic_text);
        }
        */
        // And set encoder status
        status.relative_position[i] = 0;
   8097e:	eb07 0344 	add.w	r3, r7, r4, lsl #1
    c->prev = b;
    d->next = a;
    d->prev = c;
    */
    /* Read values, assign states */
    for (int i = 0; i < 4; i++) {
   80982:	3401      	adds	r4, #1
            sprintf(panic_text, "Invalid state encoder %d", i);
            Reporting::Instance().reportText(PRIORITY_PANIC, panic_text);
        }
        */
        // And set encoder status
        status.relative_position[i] = 0;
   80984:	2000      	movs	r0, #0
    c->prev = b;
    d->next = a;
    d->prev = c;
    */
    /* Read values, assign states */
    for (int i = 0; i < 4; i++) {
   80986:	2c04      	cmp	r4, #4
            sprintf(panic_text, "Invalid state encoder %d", i);
            Reporting::Instance().reportText(PRIORITY_PANIC, panic_text);
        }
        */
        // And set encoder status
        status.relative_position[i] = 0;
   80988:	8098      	strh	r0, [r3, #4]
    c->prev = b;
    d->next = a;
    d->prev = c;
    */
    /* Read values, assign states */
    for (int i = 0; i < 4; i++) {
   8098a:	d1e5      	bne.n	80958 <_ZN8Encoders4openEPv+0x6c>
    }



    return 0;
}
   8098c:	b003      	add	sp, #12
   8098e:	e8bd 8ff0 	ldmia.w	sp!, {r4, r5, r6, r7, r8, r9, sl, fp, pc}
   80992:	bf00      	nop
   80994:	00082290 	.word	0x00082290
   80998:	00080399 	.word	0x00080399
   8099c:	00080a19 	.word	0x00080a19
   809a0:	000804e9 	.word	0x000804e9
   809a4:	000804ad 	.word	0x000804ad
   809a8:	000822a0 	.word	0x000822a0
   809ac:	000822cc 	.word	0x000822cc
   809b0:	00080255 	.word	0x00080255
   809b4:	000822c8 	.word	0x000822c8

000809b8 <_ZN8Encoders18interrupt_callbackE4Porti>:

 void *Encoders::ioctl(int ioctl_t, void *params) {
    return (void*)0;
 }

 void Encoders::interrupt_callback(Port p, int pin) {
   809b8:	b5f8      	push	{r3, r4, r5, r6, r7, lr}
   809ba:	4605      	mov	r5, r0
    for (int i = 0; i < 4; i++) {
   809bc:	2400      	movs	r4, #0

 void *Encoders::ioctl(int ioctl_t, void *params) {
    return (void*)0;
 }

 void Encoders::interrupt_callback(Port p, int pin) {
   809be:	4608      	mov	r0, r1
    for (int i = 0; i < 4; i++) {
        if (p == aPorts[i] && pin == aPins[i]) {
   809c0:	4b10      	ldr	r3, [pc, #64]	; (80a04 <_ZN8Encoders18interrupt_callbackE4Porti+0x4c>)
   809c2:	5ce3      	ldrb	r3, [r4, r3]
   809c4:	4283      	cmp	r3, r0
   809c6:	d119      	bne.n	809fc <_ZN8Encoders18interrupt_callbackE4Porti+0x44>
   809c8:	4b0f      	ldr	r3, [pc, #60]	; (80a08 <_ZN8Encoders18interrupt_callbackE4Porti+0x50>)
   809ca:	f853 3024 	ldr.w	r3, [r3, r4, lsl #2]
   809ce:	429a      	cmp	r2, r3
   809d0:	d114      	bne.n	809fc <_ZN8Encoders18interrupt_callbackE4Porti+0x44>
            if (pinReadInput(p, pin) == pinReadInput(bPorts[i], bPins[i])) {
   809d2:	4611      	mov	r1, r2
   809d4:	4e0d      	ldr	r6, [pc, #52]	; (80a0c <_ZN8Encoders18interrupt_callbackE4Porti+0x54>)
   809d6:	47b0      	blx	r6
   809d8:	4b0d      	ldr	r3, [pc, #52]	; (80a10 <_ZN8Encoders18interrupt_callbackE4Porti+0x58>)
   809da:	4607      	mov	r7, r0
   809dc:	5d18      	ldrb	r0, [r3, r4]
   809de:	4b0d      	ldr	r3, [pc, #52]	; (80a14 <_ZN8Encoders18interrupt_callbackE4Porti+0x5c>)
   809e0:	f853 1024 	ldr.w	r1, [r3, r4, lsl #2]
   809e4:	47b0      	blx	r6
   809e6:	0064      	lsls	r4, r4, #1
   809e8:	4425      	add	r5, r4
                status.relative_position[i] ++;
   809ea:	88ab      	ldrh	r3, [r5, #4]
 }

 void Encoders::interrupt_callback(Port p, int pin) {
    for (int i = 0; i < 4; i++) {
        if (p == aPorts[i] && pin == aPins[i]) {
            if (pinReadInput(p, pin) == pinReadInput(bPorts[i], bPins[i])) {
   809ec:	4287      	cmp	r7, r0
                status.relative_position[i] ++;
   809ee:	bf0c      	ite	eq
   809f0:	3301      	addeq	r3, #1
            } else {
                status.relative_position[i] --;
   809f2:	f103 33ff 	addne.w	r3, r3, #4294967295
   809f6:	b29b      	uxth	r3, r3
   809f8:	80ab      	strh	r3, [r5, #4]
   809fa:	bdf8      	pop	{r3, r4, r5, r6, r7, pc}
 void *Encoders::ioctl(int ioctl_t, void *params) {
    return (void*)0;
 }

 void Encoders::interrupt_callback(Port p, int pin) {
    for (int i = 0; i < 4; i++) {
   809fc:	3401      	adds	r4, #1
   809fe:	2c04      	cmp	r4, #4
   80a00:	d1de      	bne.n	809c0 <_ZN8Encoders18interrupt_callbackE4Porti+0x8>
   80a02:	bdf8      	pop	{r3, r4, r5, r6, r7, pc}
   80a04:	000822a0 	.word	0x000822a0
   80a08:	000822cc 	.word	0x000822cc
   80a0c:	000804ad 	.word	0x000804ad
   80a10:	000822c8 	.word	0x000822c8
   80a14:	00082290 	.word	0x00082290

00080a18 <_Z14__encoders_isr4Porti>:
            break;
        }
    }
 }

 void __encoders_isr(Port p, int pin) {
   80a18:	b570      	push	{r4, r5, r6, lr}
    Encoders(Encoders const&);
    void operator=(Encoders const&);
  public:
    static Encoders& Instance()
    {
        static Encoders instance;
   80a1a:	4c0b      	ldr	r4, [pc, #44]	; (80a48 <_Z14__encoders_isr4Porti+0x30>)
   80a1c:	4606      	mov	r6, r0
   80a1e:	6823      	ldr	r3, [r4, #0]
   80a20:	460d      	mov	r5, r1
   80a22:	07db      	lsls	r3, r3, #31
   80a24:	d409      	bmi.n	80a3a <_Z14__encoders_isr4Porti+0x22>
   80a26:	4620      	mov	r0, r4
   80a28:	4b08      	ldr	r3, [pc, #32]	; (80a4c <_Z14__encoders_isr4Porti+0x34>)
   80a2a:	4798      	blx	r3
   80a2c:	b128      	cbz	r0, 80a3a <_Z14__encoders_isr4Porti+0x22>
    EncodersStatus readStatus;
    volatile uint8_t states[4];
    //volatile EncoderState *states[4];

    // Define as a singleton
    Encoders() {};
   80a2e:	4b08      	ldr	r3, [pc, #32]	; (80a50 <_Z14__encoders_isr4Porti+0x38>)
   80a30:	4a08      	ldr	r2, [pc, #32]	; (80a54 <_Z14__encoders_isr4Porti+0x3c>)
    Encoders(Encoders const&);
    void operator=(Encoders const&);
  public:
    static Encoders& Instance()
    {
        static Encoders instance;
   80a32:	4620      	mov	r0, r4
    EncodersStatus readStatus;
    volatile uint8_t states[4];
    //volatile EncoderState *states[4];

    // Define as a singleton
    Encoders() {};
   80a34:	601a      	str	r2, [r3, #0]
    Encoders(Encoders const&);
    void operator=(Encoders const&);
  public:
    static Encoders& Instance()
    {
        static Encoders instance;
   80a36:	4b08      	ldr	r3, [pc, #32]	; (80a58 <_Z14__encoders_isr4Porti+0x40>)
   80a38:	4798      	blx	r3
    Encoders::Instance().interrupt_callback(p, pin);
   80a3a:	4805      	ldr	r0, [pc, #20]	; (80a50 <_Z14__encoders_isr4Porti+0x38>)
   80a3c:	4631      	mov	r1, r6
   80a3e:	462a      	mov	r2, r5
   80a40:	4b06      	ldr	r3, [pc, #24]	; (80a5c <_Z14__encoders_isr4Porti+0x44>)
   80a42:	4798      	blx	r3
   80a44:	bd70      	pop	{r4, r5, r6, pc}
   80a46:	bf00      	nop
   80a48:	200002b0 	.word	0x200002b0
   80a4c:	00080ff5 	.word	0x00080ff5
   80a50:	20000298 	.word	0x20000298
   80a54:	000822b0 	.word	0x000822b0
   80a58:	00081011 	.word	0x00081011
   80a5c:	000809b9 	.word	0x000809b9

00080a60 <_ZN13SSD1305ParamsC1Ev>:
#include "../SSD1305.h"

#include <stdlib.h>

SSD1305Params::SSD1305Params() {
}
   80a60:	4770      	bx	lr

00080a62 <_ZN13SSD1305ParamsD1Ev>:

SSD1305Params::~SSD1305Params() {

}
   80a62:	4770      	bx	lr

00080a64 <_ZN13SSD1305Params8setPixelEiii>:

void SSD1305Params::setPixel(int x, int y, int val) {
    if (x >= 0 && x < width && y >= 0 && y < height) {
   80a64:	297f      	cmp	r1, #127	; 0x7f

SSD1305Params::~SSD1305Params() {

}

void SSD1305Params::setPixel(int x, int y, int val) {
   80a66:	b510      	push	{r4, lr}
    if (x >= 0 && x < width && y >= 0 && y < height) {
   80a68:	d81a      	bhi.n	80aa0 <_ZN13SSD1305Params8setPixelEiii+0x3c>
   80a6a:	2a1f      	cmp	r2, #31
   80a6c:	d818      	bhi.n	80aa0 <_ZN13SSD1305Params8setPixelEiii+0x3c>
   80a6e:	f1c2 041f 	rsb	r4, r2, #31
   80a72:	f1c1 017f 	rsb	r1, r1, #127	; 0x7f
   80a76:	f002 0207 	and.w	r2, r2, #7
        #ifdef SSD1305_ORIENTATION
            int max_x = width - 1;
            int max_y = height - 1;
            if (val == PIXEL_ON)
                buffer[max_x - x + (width * ((max_y - y) / pix_in_page))] |= 
   80a7a:	10e4      	asrs	r4, r4, #3
void SSD1305Params::setPixel(int x, int y, int val) {
    if (x >= 0 && x < width && y >= 0 && y < height) {
        #ifdef SSD1305_ORIENTATION
            int max_x = width - 1;
            int max_y = height - 1;
            if (val == PIXEL_ON)
   80a7c:	2b01      	cmp	r3, #1
                buffer[max_x - x + (width * ((max_y - y) / pix_in_page))] |= 
                    0x1 << ((pix_in_page - 1) - ( y % pix_in_page));
   80a7e:	eb01 11c4 	add.w	r1, r1, r4, lsl #7
   80a82:	f1c2 0207 	rsb	r2, r2, #7
void SSD1305Params::setPixel(int x, int y, int val) {
    if (x >= 0 && x < width && y >= 0 && y < height) {
        #ifdef SSD1305_ORIENTATION
            int max_x = width - 1;
            int max_y = height - 1;
            if (val == PIXEL_ON)
   80a86:	d104      	bne.n	80a92 <_ZN13SSD1305Params8setPixelEiii+0x2e>
                buffer[max_x - x + (width * ((max_y - y) / pix_in_page))] |= 
                    0x1 << ((pix_in_page - 1) - ( y % pix_in_page));
   80a88:	4093      	lsls	r3, r2
   80a8a:	5c42      	ldrb	r2, [r0, r1]
   80a8c:	4313      	orrs	r3, r2
   80a8e:	5443      	strb	r3, [r0, r1]
   80a90:	bd10      	pop	{r4, pc}
            else
                buffer[max_x - x + (width * ((max_y - y) / pix_in_page))] &=
                   ~(0x1 << ((pix_in_page - 1) - (y % pix_in_page))); 
   80a92:	2301      	movs	r3, #1
   80a94:	fa03 f202 	lsl.w	r2, r3, r2
   80a98:	5c43      	ldrb	r3, [r0, r1]
   80a9a:	ea23 0202 	bic.w	r2, r3, r2
   80a9e:	5442      	strb	r2, [r0, r1]
   80aa0:	bd10      	pop	{r4, pc}

00080aa2 <_ZN13SSD1305Params5clearEi>:
        #endif
    }
}

void SSD1305Params::clear(int val) {
    for (int i = 0; i < visible_buffers; i++) {
   80aa2:	2300      	movs	r3, #0
        if (val == PIXEL_ON)
   80aa4:	2901      	cmp	r1, #1
            buffer[i] = 0xFF; // <<<< Problem is here
   80aa6:	bf0c      	ite	eq
   80aa8:	22ff      	moveq	r2, #255	; 0xff
        else
            buffer[i] = 0x00;
   80aaa:	2200      	movne	r2, #0
   80aac:	54c2      	strb	r2, [r0, r3]
        #endif
    }
}

void SSD1305Params::clear(int val) {
    for (int i = 0; i < visible_buffers; i++) {
   80aae:	3301      	adds	r3, #1
   80ab0:	f5b3 7f00 	cmp.w	r3, #512	; 0x200
   80ab4:	d1f6      	bne.n	80aa4 <_ZN13SSD1305Params5clearEi+0x2>
        if (val == PIXEL_ON)
            buffer[i] = 0xFF; // <<<< Problem is here
        else
            buffer[i] = 0x00;
    }
   80ab6:	4770      	bx	lr

00080ab8 <_ZN3SPI5closeEv>:

    return 0;
 }

 int SPI::close() {
    SPI0->SPI_CR = SPI_CR_SPIDIS;
   80ab8:	4b05      	ldr	r3, [pc, #20]	; (80ad0 <_ZN3SPI5closeEv+0x18>)
   80aba:	2202      	movs	r2, #2
   80abc:	601a      	str	r2, [r3, #0]
    PMC->PMC_PCDR0 = 1<<ID_SPI0;
   80abe:	f503 2358 	add.w	r3, r3, #884736	; 0xd8000
   80ac2:	f04f 7280 	mov.w	r2, #16777216	; 0x1000000
   80ac6:	f503 63c0 	add.w	r3, r3, #1536	; 0x600
   80aca:	615a      	str	r2, [r3, #20]
    return 0;
 }
   80acc:	2000      	movs	r0, #0
   80ace:	4770      	bx	lr
   80ad0:	40008000 	.word	0x40008000

00080ad4 <_ZN3SPI4readEv>:
 }

 void* SPI::read() {

    return (void*)NULL;
 }
   80ad4:	2000      	movs	r0, #0
   80ad6:	4770      	bx	lr

00080ad8 <_ZN3SPI4openEPv>:
 #include "ShiftRegisters.h"
 #include "../Reporting.h"

 #include <stdlib.h> // Used for definition of NULL

 int SPI::open( void* data) {
   80ad8:	b538      	push	{r3, r4, r5, lr}
   80ada:	4604      	mov	r4, r0
    SPIParams *params = (SPIParams*)data;
    csPort = params->csPort;
   80adc:	7808      	ldrb	r0, [r1, #0]
    csPin  = params->csPin;
   80ade:	6849      	ldr	r1, [r1, #4]

    // Configure cs pin
    pinSetMode(csPort,   csPin,   OUTPUT);
   80ae0:	4d16      	ldr	r5, [pc, #88]	; (80b3c <_ZN3SPI4openEPv+0x64>)

 #include <stdlib.h> // Used for definition of NULL

 int SPI::open( void* data) {
    SPIParams *params = (SPIParams*)data;
    csPort = params->csPort;
   80ae2:	7120      	strb	r0, [r4, #4]
    csPin  = params->csPin;
   80ae4:	60a1      	str	r1, [r4, #8]

    // Configure cs pin
    pinSetMode(csPort,   csPin,   OUTPUT);
   80ae6:	2201      	movs	r2, #1
   80ae8:	47a8      	blx	r5
    pinDisablePullup(csPort, csPin);
   80aea:	7920      	ldrb	r0, [r4, #4]
   80aec:	68a1      	ldr	r1, [r4, #8]
   80aee:	4b14      	ldr	r3, [pc, #80]	; (80b40 <_ZN3SPI4openEPv+0x68>)
   80af0:	4798      	blx	r3
    pinSetOutput(csPort, csPin, HIGH);
   80af2:	4b14      	ldr	r3, [pc, #80]	; (80b44 <_ZN3SPI4openEPv+0x6c>)
   80af4:	7920      	ldrb	r0, [r4, #4]
   80af6:	68a1      	ldr	r1, [r4, #8]
   80af8:	2201      	movs	r2, #1
   80afa:	4798      	blx	r3

    // Configure SPI peripheral pins
    pinSetMode(misoPort, misoPin, PERIPHERAL_A);
   80afc:	2000      	movs	r0, #0
   80afe:	2119      	movs	r1, #25
   80b00:	2202      	movs	r2, #2
   80b02:	47a8      	blx	r5
    pinSetMode(mosiPort, mosiPin, PERIPHERAL_A);
   80b04:	2000      	movs	r0, #0
   80b06:	211a      	movs	r1, #26
   80b08:	2202      	movs	r2, #2
   80b0a:	47a8      	blx	r5
    pinSetMode(clkPort,  clkPin,  PERIPHERAL_A);
   80b0c:	2000      	movs	r0, #0
   80b0e:	211b      	movs	r1, #27
   80b10:	2202      	movs	r2, #2
   80b12:	47a8      	blx	r5

    // Enable SPI controller
    PMC->PMC_PCER0 = 1<<ID_SPI0;    
   80b14:	4b0c      	ldr	r3, [pc, #48]	; (80b48 <_ZN3SPI4openEPv+0x70>)
   80b16:	f04f 7280 	mov.w	r2, #16777216	; 0x1000000
   80b1a:	611a      	str	r2, [r3, #16]
    
    // Disable SPI in SPI controller so we can configure it
    SPI0->SPI_CR = SPI_CR_SPIDIS;
   80b1c:	4b0b      	ldr	r3, [pc, #44]	; (80b4c <_ZN3SPI4openEPv+0x74>)
   80b1e:	2202      	movs	r2, #2
   80b20:	601a      	str	r2, [r3, #0]

    // Mode Register = Master, Disable fault detection, NPCS[3:0] = 
    SPI0->SPI_MR = SPI_MR_MSTR | SPI_MR_MODFDIS | 0x000E0000; 
   80b22:	4a0b      	ldr	r2, [pc, #44]	; (80b50 <_ZN3SPI4openEPv+0x78>)

    // Enable SPI in SPI controller
    SPI0->SPI_CR = SPI_CR_SPIEN;    

    return 0;
 }
   80b24:	2000      	movs	r0, #0
    
    // Disable SPI in SPI controller so we can configure it
    SPI0->SPI_CR = SPI_CR_SPIDIS;

    // Mode Register = Master, Disable fault detection, NPCS[3:0] = 
    SPI0->SPI_MR = SPI_MR_MSTR | SPI_MR_MODFDIS | 0x000E0000; 
   80b26:	605a      	str	r2, [r3, #4]

    // SPCK baudrate = MCK / SCBR = 84 MHz / 40 (0x28) = 2.1Mhz
    SPI0->SPI_CSR[0] |= 0x00002800 | SPI_CSR_NCPHA;
   80b28:	6b1a      	ldr	r2, [r3, #48]	; 0x30
   80b2a:	f442 5220 	orr.w	r2, r2, #10240	; 0x2800
   80b2e:	f042 0202 	orr.w	r2, r2, #2
   80b32:	631a      	str	r2, [r3, #48]	; 0x30

    // Enable SPI in SPI controller
    SPI0->SPI_CR = SPI_CR_SPIEN;    
   80b34:	2201      	movs	r2, #1
   80b36:	601a      	str	r2, [r3, #0]

    return 0;
 }
   80b38:	bd38      	pop	{r3, r4, r5, pc}
   80b3a:	bf00      	nop
   80b3c:	00080255 	.word	0x00080255
   80b40:	000803e1 	.word	0x000803e1
   80b44:	00080429 	.word	0x00080429
   80b48:	400e0600 	.word	0x400e0600
   80b4c:	40008000 	.word	0x40008000
   80b50:	000e0011 	.word	0x000e0011

00080b54 <_ZN3SPI5ioctlEiPv>:

    return (void*)NULL;
 }

 void* SPI::ioctl(int ioctl_t, void *params) {
    if (ioctl_t == SPI_BLOCK_UNTIL_TRANSFERRED) {
   80b54:	b919      	cbnz	r1, 80b5e <_ZN3SPI5ioctlEiPv+0xa>
        while (!(SPI0->SPI_SR & SPI_SR_TXEMPTY)) {};
   80b56:	4b03      	ldr	r3, [pc, #12]	; (80b64 <_ZN3SPI5ioctlEiPv+0x10>)
   80b58:	691b      	ldr	r3, [r3, #16]
   80b5a:	059b      	lsls	r3, r3, #22
   80b5c:	d5fb      	bpl.n	80b56 <_ZN3SPI5ioctlEiPv+0x2>
    }

    return (void*)NULL;
   80b5e:	2000      	movs	r0, #0
   80b60:	4770      	bx	lr
   80b62:	bf00      	nop
   80b64:	40008000 	.word	0x40008000

00080b68 <_ZN3SPI5writeEPv>:
    SPI0->SPI_CR = SPI_CR_SPIDIS;
    PMC->PMC_PCDR0 = 1<<ID_SPI0;
    return 0;
 }

 int SPI::write( void* data) {
   80b68:	b538      	push	{r3, r4, r5, lr}
   80b6a:	4604      	mov	r4, r0
   80b6c:	460d      	mov	r5, r1
    SPIWriteParams *swp = (SPIWriteParams*)data;

    // Wait for previous transfer to complete
    while ((SPI0->SPI_SR & SPI_SR_TXEMPTY) == 0);
   80b6e:	4b0e      	ldr	r3, [pc, #56]	; (80ba8 <_ZN3SPI5writeEPv+0x40>)
   80b70:	691b      	ldr	r3, [r3, #16]
   80b72:	0599      	lsls	r1, r3, #22
   80b74:	d5fb      	bpl.n	80b6e <_ZN3SPI5writeEPv+0x6>

    // Send data
    if (!csOpen) {
   80b76:	68e2      	ldr	r2, [r4, #12]
   80b78:	b92a      	cbnz	r2, 80b86 <_ZN3SPI5writeEPv+0x1e>
        pinSetOutput(csPort, csPin, LOW);
   80b7a:	4b0c      	ldr	r3, [pc, #48]	; (80bac <_ZN3SPI5writeEPv+0x44>)
   80b7c:	7920      	ldrb	r0, [r4, #4]
   80b7e:	68a1      	ldr	r1, [r4, #8]
   80b80:	4798      	blx	r3
        csOpen = 1;
   80b82:	2301      	movs	r3, #1
   80b84:	60e3      	str	r3, [r4, #12]
    }
    SPI0->SPI_TDR = swp->data;
   80b86:	882a      	ldrh	r2, [r5, #0]
   80b88:	4b07      	ldr	r3, [pc, #28]	; (80ba8 <_ZN3SPI5writeEPv+0x40>)
   80b8a:	60da      	str	r2, [r3, #12]

    // Wait til data has been sent
    // (SPI_BLOCK_UNTIL_TRANSFERRED ioctl does the same)
    while (!(SPI0->SPI_SR & SPI_SR_TXEMPTY)) {};
   80b8c:	691a      	ldr	r2, [r3, #16]
   80b8e:	0592      	lsls	r2, r2, #22
   80b90:	d5fc      	bpl.n	80b8c <_ZN3SPI5writeEPv+0x24>
    if (swp->mode == SPI_LAST) {
   80b92:	686d      	ldr	r5, [r5, #4]
   80b94:	b92d      	cbnz	r5, 80ba2 <_ZN3SPI5writeEPv+0x3a>
        pinSetOutput(csPort, csPin, HIGH);
   80b96:	7920      	ldrb	r0, [r4, #4]
   80b98:	68a1      	ldr	r1, [r4, #8]
   80b9a:	2201      	movs	r2, #1
   80b9c:	4b03      	ldr	r3, [pc, #12]	; (80bac <_ZN3SPI5writeEPv+0x44>)
   80b9e:	4798      	blx	r3
        csOpen = 0;
   80ba0:	60e5      	str	r5, [r4, #12]
    }

    // We're out
    return 0;
 }
   80ba2:	2000      	movs	r0, #0
   80ba4:	bd38      	pop	{r3, r4, r5, pc}
   80ba6:	bf00      	nop
   80ba8:	40008000 	.word	0x40008000
   80bac:	00080429 	.word	0x00080429

00080bb0 <_ZN7SSD13055closeEv>:
    return 0;
 }

 int SSD1305::close() {
    return 0;
 }
   80bb0:	2000      	movs	r0, #0
   80bb2:	4770      	bx	lr

00080bb4 <_ZN7SSD13054readEv>:
    return 0;
 }

 void *SSD1305::read() {
    return (void*)0;
 }
   80bb4:	2000      	movs	r0, #0
   80bb6:	4770      	bx	lr

00080bb8 <_ZN7SSD13055ioctlEiPv>:

 void *SSD1305::ioctl(int ioctl_t, void* params) {
    return (void*)0;
   80bb8:	2000      	movs	r0, #0
   80bba:	4770      	bx	lr

00080bbc <_ZN3SPI8InstanceEv>:

    // Make it a singleton
    SPI(SPI const&);
    void operator=(SPI const&);
  public:
    static SPI& Instance() {
   80bbc:	b538      	push	{r3, r4, r5, lr}
        static SPI instance;
   80bbe:	4c09      	ldr	r4, [pc, #36]	; (80be4 <_ZN3SPI8InstanceEv+0x28>)
   80bc0:	6823      	ldr	r3, [r4, #0]
   80bc2:	f013 0501 	ands.w	r5, r3, #1
   80bc6:	d10a      	bne.n	80bde <_ZN3SPI8InstanceEv+0x22>
   80bc8:	4620      	mov	r0, r4
   80bca:	4b07      	ldr	r3, [pc, #28]	; (80be8 <_ZN3SPI8InstanceEv+0x2c>)
   80bcc:	4798      	blx	r3
   80bce:	b130      	cbz	r0, 80bde <_ZN3SPI8InstanceEv+0x22>

    Port csPort;
    int  csPin;
    int  csOpen;

    SPI() {
   80bd0:	4a06      	ldr	r2, [pc, #24]	; (80bec <_ZN3SPI8InstanceEv+0x30>)
   80bd2:	4b07      	ldr	r3, [pc, #28]	; (80bf0 <_ZN3SPI8InstanceEv+0x34>)
    // Make it a singleton
    SPI(SPI const&);
    void operator=(SPI const&);
  public:
    static SPI& Instance() {
        static SPI instance;
   80bd4:	4620      	mov	r0, r4

    Port csPort;
    int  csPin;
    int  csOpen;

    SPI() {
   80bd6:	6013      	str	r3, [r2, #0]
    // Make it a singleton
    SPI(SPI const&);
    void operator=(SPI const&);
  public:
    static SPI& Instance() {
        static SPI instance;
   80bd8:	4b06      	ldr	r3, [pc, #24]	; (80bf4 <_ZN3SPI8InstanceEv+0x38>)
    Port csPort;
    int  csPin;
    int  csOpen;

    SPI() {
        csOpen = 0;
   80bda:	60d5      	str	r5, [r2, #12]
    // Make it a singleton
    SPI(SPI const&);
    void operator=(SPI const&);
  public:
    static SPI& Instance() {
        static SPI instance;
   80bdc:	4798      	blx	r3
        return instance;
    };
   80bde:	4803      	ldr	r0, [pc, #12]	; (80bec <_ZN3SPI8InstanceEv+0x30>)
   80be0:	bd38      	pop	{r3, r4, r5, pc}
   80be2:	bf00      	nop
   80be4:	200002c4 	.word	0x200002c4
   80be8:	00080ff5 	.word	0x00080ff5
   80bec:	200002b4 	.word	0x200002b4
   80bf0:	000822e8 	.word	0x000822e8
   80bf4:	00081011 	.word	0x00081011

00080bf8 <_ZN7SSD13054openEPv>:

 #include "../Reporting.h"

 #include <stdlib.h>

 int SSD1305::open( void* params) {
   80bf8:	e92d 47ff 	stmdb	sp!, {r0, r1, r2, r3, r4, r5, r6, r7, r8, r9, sl, lr}
    pinSetMode(dcPort,  dcPin,  OUTPUT);
   80bfc:	4c9c      	ldr	r4, [pc, #624]	; (80e70 <_ZN7SSD13054openEPv+0x278>)
   80bfe:	2002      	movs	r0, #2
   80c00:	211c      	movs	r1, #28
   80c02:	2201      	movs	r2, #1
   80c04:	47a0      	blx	r4
    pinSetMode(resPort, resPin, OUTPUT);
   80c06:	2001      	movs	r0, #1
   80c08:	4602      	mov	r2, r0
   80c0a:	2119      	movs	r1, #25
   80c0c:	47a0      	blx	r4
    pinDisablePullup(dcPort, dcPin);
   80c0e:	4c99      	ldr	r4, [pc, #612]	; (80e74 <_ZN7SSD13054openEPv+0x27c>)
   80c10:	2002      	movs	r0, #2
   80c12:	211c      	movs	r1, #28
   80c14:	47a0      	blx	r4
    pinDisablePullup(resPort, resPin);
   80c16:	2001      	movs	r0, #1
   80c18:	2119      	movs	r1, #25
   80c1a:	47a0      	blx	r4
    pinSetOutput(resPort, resPin, LOW);
   80c1c:	4f96      	ldr	r7, [pc, #600]	; (80e78 <_ZN7SSD13054openEPv+0x280>)
   80c1e:	2200      	movs	r2, #0
   80c20:	2119      	movs	r1, #25
   80c22:	2001      	movs	r0, #1

    SPIParams sp;
    sp.csPort = csPort;
    sp.csPin  = csPin;

    SPI::Instance().open(&sp);
   80c24:	4d95      	ldr	r5, [pc, #596]	; (80e7c <_ZN7SSD13054openEPv+0x284>)
 int SSD1305::open( void* params) {
    pinSetMode(dcPort,  dcPin,  OUTPUT);
    pinSetMode(resPort, resPin, OUTPUT);
    pinDisablePullup(dcPort, dcPin);
    pinDisablePullup(resPort, resPin);
    pinSetOutput(resPort, resPin, LOW);
   80c26:	47b8      	blx	r7


    SPIParams sp;
    sp.csPort = csPort;
   80c28:	f04f 0902 	mov.w	r9, #2
    sp.csPin  = csPin;
   80c2c:	231a      	movs	r3, #26
   80c2e:	9301      	str	r3, [sp, #4]
    pinDisablePullup(resPort, resPin);
    pinSetOutput(resPort, resPin, LOW);


    SPIParams sp;
    sp.csPort = csPort;
   80c30:	f88d 9000 	strb.w	r9, [sp]
    sp.csPin  = csPin;

    SPI::Instance().open(&sp);
   80c34:	47a8      	blx	r5
   80c36:	6803      	ldr	r3, [r0, #0]
   80c38:	4669      	mov	r1, sp
   80c3a:	681b      	ldr	r3, [r3, #0]
   80c3c:	4798      	blx	r3

    pinSetOutput(resPort, resPin, HIGH);
   80c3e:	2001      	movs	r0, #1
   80c40:	4602      	mov	r2, r0
   80c42:	2119      	movs	r1, #25
   80c44:	47b8      	blx	r7
    pinSetOutput(dcPort,  dcPin,  LOW);
   80c46:	2200      	movs	r2, #0
   80c48:	211c      	movs	r1, #28
   80c4a:	4648      	mov	r0, r9
   80c4c:	47b8      	blx	r7

    // Do our initialization
    SPIWriteParams swp;
    swp.mode = SPI_CONTINUE;
    swp.data = 0xAE;
   80c4e:	ac04      	add	r4, sp, #16
   80c50:	23ae      	movs	r3, #174	; 0xae
    pinSetOutput(resPort, resPin, HIGH);
    pinSetOutput(dcPort,  dcPin,  LOW);

    // Do our initialization
    SPIWriteParams swp;
    swp.mode = SPI_CONTINUE;
   80c52:	f04f 0a01 	mov.w	sl, #1
    swp.data = 0xAE;
   80c56:	f824 3d08 	strh.w	r3, [r4, #-8]!
    pinSetOutput(resPort, resPin, HIGH);
    pinSetOutput(dcPort,  dcPin,  LOW);

    // Do our initialization
    SPIWriteParams swp;
    swp.mode = SPI_CONTINUE;
   80c5a:	f8cd a00c 	str.w	sl, [sp, #12]
    swp.data = 0xAE;
    SPI::Instance().write(&swp);
   80c5e:	47a8      	blx	r5
   80c60:	6803      	ldr	r3, [r0, #0]
   80c62:	4621      	mov	r1, r4
   80c64:	689b      	ldr	r3, [r3, #8]
   80c66:	4798      	blx	r3
    swp.data = 0xD5;
   80c68:	23d5      	movs	r3, #213	; 0xd5
   80c6a:	f8ad 3008 	strh.w	r3, [sp, #8]
    SPI::Instance().write(&swp);  // set display clock divider ratio
   80c6e:	47a8      	blx	r5
   80c70:	6803      	ldr	r3, [r0, #0]
   80c72:	4621      	mov	r1, r4
   80c74:	689b      	ldr	r3, [r3, #8]
   80c76:	4798      	blx	r3
    swp.data = 0xA0;
   80c78:	23a0      	movs	r3, #160	; 0xa0
   80c7a:	f8ad 3008 	strh.w	r3, [sp, #8]
    SPI::Instance().write(&swp);
   80c7e:	47a8      	blx	r5
   80c80:	6803      	ldr	r3, [r0, #0]
   80c82:	4621      	mov	r1, r4
   80c84:	689b      	ldr	r3, [r3, #8]
   80c86:	4798      	blx	r3
    swp.data = 0xA8;
   80c88:	23a8      	movs	r3, #168	; 0xa8
   80c8a:	f8ad 3008 	strh.w	r3, [sp, #8]
    SPI::Instance().write(&swp);  // set multiplex ratio
   80c8e:	47a8      	blx	r5
   80c90:	6803      	ldr	r3, [r0, #0]
    swp.data = 0x3F;
   80c92:	263f      	movs	r6, #63	; 0x3f
    swp.data = 0xD5;
    SPI::Instance().write(&swp);  // set display clock divider ratio
    swp.data = 0xA0;
    SPI::Instance().write(&swp);
    swp.data = 0xA8;
    SPI::Instance().write(&swp);  // set multiplex ratio
   80c94:	689b      	ldr	r3, [r3, #8]
   80c96:	4621      	mov	r1, r4
   80c98:	4798      	blx	r3
    swp.data = 0x3F;
   80c9a:	f8ad 6008 	strh.w	r6, [sp, #8]
    SPI::Instance().write(&swp);
   80c9e:	47a8      	blx	r5
   80ca0:	6803      	ldr	r3, [r0, #0]
   80ca2:	4621      	mov	r1, r4
   80ca4:	689b      	ldr	r3, [r3, #8]
   80ca6:	4798      	blx	r3
    swp.data = 0xD3;
   80ca8:	23d3      	movs	r3, #211	; 0xd3
   80caa:	f8ad 3008 	strh.w	r3, [sp, #8]
    SPI::Instance().write(&swp);  // set display offset
   80cae:	47a8      	blx	r5
   80cb0:	6803      	ldr	r3, [r0, #0]
    swp.data = 0x00;
   80cb2:	f04f 0800 	mov.w	r8, #0
    swp.data = 0xA8;
    SPI::Instance().write(&swp);  // set multiplex ratio
    swp.data = 0x3F;
    SPI::Instance().write(&swp);
    swp.data = 0xD3;
    SPI::Instance().write(&swp);  // set display offset
   80cb6:	689b      	ldr	r3, [r3, #8]
   80cb8:	4621      	mov	r1, r4
   80cba:	4798      	blx	r3
    swp.data = 0x00;
   80cbc:	f8ad 8008 	strh.w	r8, [sp, #8]
    SPI::Instance().write(&swp);
   80cc0:	47a8      	blx	r5
   80cc2:	6803      	ldr	r3, [r0, #0]
   80cc4:	4621      	mov	r1, r4
   80cc6:	689b      	ldr	r3, [r3, #8]
   80cc8:	4798      	blx	r3
    swp.data = 0x40;
   80cca:	2340      	movs	r3, #64	; 0x40
   80ccc:	f8ad 3008 	strh.w	r3, [sp, #8]
    SPI::Instance().write(&swp);  // set display start line
   80cd0:	47a8      	blx	r5
   80cd2:	6803      	ldr	r3, [r0, #0]
   80cd4:	4621      	mov	r1, r4
   80cd6:	689b      	ldr	r3, [r3, #8]
   80cd8:	4798      	blx	r3
    swp.data = 0xAD;
   80cda:	23ad      	movs	r3, #173	; 0xad
   80cdc:	f8ad 3008 	strh.w	r3, [sp, #8]
    SPI::Instance().write(&swp);  // set master configuration
   80ce0:	47a8      	blx	r5
   80ce2:	6803      	ldr	r3, [r0, #0]
   80ce4:	4621      	mov	r1, r4
   80ce6:	689b      	ldr	r3, [r3, #8]
   80ce8:	4798      	blx	r3
    swp.data = 0x8E;
   80cea:	238e      	movs	r3, #142	; 0x8e
   80cec:	f8ad 3008 	strh.w	r3, [sp, #8]
    SPI::Instance().write(&swp);
   80cf0:	47a8      	blx	r5
   80cf2:	6803      	ldr	r3, [r0, #0]
   80cf4:	4621      	mov	r1, r4
   80cf6:	689b      	ldr	r3, [r3, #8]
   80cf8:	4798      	blx	r3
    swp.data = 0xD8;
   80cfa:	23d8      	movs	r3, #216	; 0xd8
   80cfc:	f8ad 3008 	strh.w	r3, [sp, #8]
    SPI::Instance().write(&swp);  // Set area color mode
   80d00:	47a8      	blx	r5
   80d02:	6803      	ldr	r3, [r0, #0]
   80d04:	4621      	mov	r1, r4
   80d06:	689b      	ldr	r3, [r3, #8]
   80d08:	4798      	blx	r3
    swp.data = 0x05;
   80d0a:	2305      	movs	r3, #5
   80d0c:	f8ad 3008 	strh.w	r3, [sp, #8]
    SPI::Instance().write(&swp);
   80d10:	47a8      	blx	r5
   80d12:	6803      	ldr	r3, [r0, #0]
   80d14:	4621      	mov	r1, r4
   80d16:	689b      	ldr	r3, [r3, #8]
   80d18:	4798      	blx	r3
    swp.data = 0xA1;
   80d1a:	23a1      	movs	r3, #161	; 0xa1
   80d1c:	f8ad 3008 	strh.w	r3, [sp, #8]
    SPI::Instance().write(&swp);  // Set segment re-map
   80d20:	47a8      	blx	r5
   80d22:	6803      	ldr	r3, [r0, #0]
   80d24:	4621      	mov	r1, r4
   80d26:	689b      	ldr	r3, [r3, #8]
   80d28:	4798      	blx	r3
    swp.data = 0xC8;
   80d2a:	23c8      	movs	r3, #200	; 0xc8
   80d2c:	f8ad 3008 	strh.w	r3, [sp, #8]
    SPI::Instance().write(&swp);  // Set com output scan direction
   80d30:	47a8      	blx	r5
   80d32:	6803      	ldr	r3, [r0, #0]
   80d34:	4621      	mov	r1, r4
   80d36:	689b      	ldr	r3, [r3, #8]
   80d38:	4798      	blx	r3
    swp.data = 0xDA;
   80d3a:	23da      	movs	r3, #218	; 0xda
   80d3c:	f8ad 3008 	strh.w	r3, [sp, #8]
    SPI::Instance().write(&swp);  // Set com pins hardware configuration
   80d40:	47a8      	blx	r5
   80d42:	6803      	ldr	r3, [r0, #0]
   80d44:	4621      	mov	r1, r4
   80d46:	689b      	ldr	r3, [r3, #8]
   80d48:	4798      	blx	r3
    swp.data = 0x12;
   80d4a:	2312      	movs	r3, #18
   80d4c:	f8ad 3008 	strh.w	r3, [sp, #8]
    SPI::Instance().write(&swp);
   80d50:	47a8      	blx	r5
   80d52:	6803      	ldr	r3, [r0, #0]
   80d54:	4621      	mov	r1, r4
   80d56:	689b      	ldr	r3, [r3, #8]
   80d58:	4798      	blx	r3
    swp.data = 0x91;
   80d5a:	2391      	movs	r3, #145	; 0x91
   80d5c:	f8ad 3008 	strh.w	r3, [sp, #8]
    SPI::Instance().write(&swp);  // Set lookup table
   80d60:	47a8      	blx	r5
   80d62:	6803      	ldr	r3, [r0, #0]
   80d64:	4621      	mov	r1, r4
   80d66:	689b      	ldr	r3, [r3, #8]
   80d68:	4798      	blx	r3
    swp.data = 0x3F;
   80d6a:	f8ad 6008 	strh.w	r6, [sp, #8]
    SPI::Instance().write(&swp);
   80d6e:	47a8      	blx	r5
   80d70:	6803      	ldr	r3, [r0, #0]
   80d72:	4621      	mov	r1, r4
   80d74:	689b      	ldr	r3, [r3, #8]
   80d76:	4798      	blx	r3
    swp.data = 0x3F;
   80d78:	f8ad 6008 	strh.w	r6, [sp, #8]
    SPI::Instance().write(&swp);
   80d7c:	47a8      	blx	r5
   80d7e:	6803      	ldr	r3, [r0, #0]
   80d80:	4621      	mov	r1, r4
   80d82:	689b      	ldr	r3, [r3, #8]
   80d84:	4798      	blx	r3
    swp.data = 0x3F;
   80d86:	f8ad 6008 	strh.w	r6, [sp, #8]
    SPI::Instance().write(&swp);
   80d8a:	47a8      	blx	r5
   80d8c:	6803      	ldr	r3, [r0, #0]
   80d8e:	4621      	mov	r1, r4
   80d90:	689b      	ldr	r3, [r3, #8]
   80d92:	4798      	blx	r3
    swp.data = 0x3F;
   80d94:	f8ad 6008 	strh.w	r6, [sp, #8]
    SPI::Instance().write(&swp);
   80d98:	47a8      	blx	r5
   80d9a:	6803      	ldr	r3, [r0, #0]
   80d9c:	4621      	mov	r1, r4
   80d9e:	689b      	ldr	r3, [r3, #8]
   80da0:	4798      	blx	r3
    swp.data = 0x81;
   80da2:	2381      	movs	r3, #129	; 0x81
   80da4:	f8ad 3008 	strh.w	r3, [sp, #8]
    SPI::Instance().write(&swp);  // Set current control for bank 0
   80da8:	47a8      	blx	r5
   80daa:	6803      	ldr	r3, [r0, #0]
   80dac:	4621      	mov	r1, r4
   80dae:	689b      	ldr	r3, [r3, #8]
   80db0:	4798      	blx	r3
    swp.data = 0x8F;
   80db2:	238f      	movs	r3, #143	; 0x8f
   80db4:	f8ad 3008 	strh.w	r3, [sp, #8]
    SPI::Instance().write(&swp);
   80db8:	47a8      	blx	r5
   80dba:	6803      	ldr	r3, [r0, #0]
   80dbc:	4621      	mov	r1, r4
   80dbe:	689b      	ldr	r3, [r3, #8]
   80dc0:	4798      	blx	r3
    swp.data = 0xD9;
   80dc2:	23d9      	movs	r3, #217	; 0xd9
   80dc4:	f8ad 3008 	strh.w	r3, [sp, #8]
    SPI::Instance().write(&swp);  // Set pre-charge period
   80dc8:	47a8      	blx	r5
   80dca:	6803      	ldr	r3, [r0, #0]
   80dcc:	4621      	mov	r1, r4
   80dce:	689b      	ldr	r3, [r3, #8]
   80dd0:	4798      	blx	r3
    swp.data = 0xD2;
   80dd2:	23d2      	movs	r3, #210	; 0xd2
   80dd4:	f8ad 3008 	strh.w	r3, [sp, #8]
    SPI::Instance().write(&swp);
   80dd8:	47a8      	blx	r5
   80dda:	6803      	ldr	r3, [r0, #0]
   80ddc:	4621      	mov	r1, r4
   80dde:	689b      	ldr	r3, [r3, #8]
   80de0:	4798      	blx	r3
    swp.data = 0xDB;
   80de2:	23db      	movs	r3, #219	; 0xdb
   80de4:	f8ad 3008 	strh.w	r3, [sp, #8]
    SPI::Instance().write(&swp);  // Set vcomh deselect level
   80de8:	47a8      	blx	r5
   80dea:	6803      	ldr	r3, [r0, #0]
   80dec:	4621      	mov	r1, r4
   80dee:	689b      	ldr	r3, [r3, #8]
   80df0:	4798      	blx	r3
    swp.data = 0x34;
   80df2:	2334      	movs	r3, #52	; 0x34
   80df4:	f8ad 3008 	strh.w	r3, [sp, #8]
    SPI::Instance().write(&swp);
   80df8:	47a8      	blx	r5
   80dfa:	6803      	ldr	r3, [r0, #0]
   80dfc:	4621      	mov	r1, r4
   80dfe:	689b      	ldr	r3, [r3, #8]
   80e00:	4798      	blx	r3
    swp.data = 0xA4;
   80e02:	23a4      	movs	r3, #164	; 0xa4
   80e04:	f8ad 3008 	strh.w	r3, [sp, #8]
    SPI::Instance().write(&swp);  // Set entire display on/off
   80e08:	47a8      	blx	r5
   80e0a:	6803      	ldr	r3, [r0, #0]
   80e0c:	4621      	mov	r1, r4
   80e0e:	689b      	ldr	r3, [r3, #8]
   80e10:	4798      	blx	r3
    swp.data = 0xA6;
   80e12:	23a6      	movs	r3, #166	; 0xa6
   80e14:	f8ad 3008 	strh.w	r3, [sp, #8]
    SPI::Instance().write(&swp);  // set normal/inverse display
   80e18:	47a8      	blx	r5
   80e1a:	6803      	ldr	r3, [r0, #0]
   80e1c:	4621      	mov	r1, r4
   80e1e:	689b      	ldr	r3, [r3, #8]
   80e20:	4798      	blx	r3
    swp.data = 0x20;
   80e22:	2320      	movs	r3, #32
   80e24:	f8ad 3008 	strh.w	r3, [sp, #8]
    SPI::Instance().write(&swp);  // Page mode
   80e28:	47a8      	blx	r5
   80e2a:	6803      	ldr	r3, [r0, #0]
   80e2c:	4621      	mov	r1, r4
   80e2e:	689b      	ldr	r3, [r3, #8]
   80e30:	4798      	blx	r3
    swp.data = 0X00;
   80e32:	f8ad 8008 	strh.w	r8, [sp, #8]
    SPI::Instance().write(&swp);
   80e36:	47a8      	blx	r5
   80e38:	6803      	ldr	r3, [r0, #0]
   80e3a:	4621      	mov	r1, r4
   80e3c:	689b      	ldr	r3, [r3, #8]
   80e3e:	4798      	blx	r3
    
    SPI::Instance().ioctl(SPI_BLOCK_UNTIL_TRANSFERRED, NULL);
   80e40:	47a8      	blx	r5
   80e42:	6803      	ldr	r3, [r0, #0]
   80e44:	4641      	mov	r1, r8
   80e46:	4642      	mov	r2, r8
   80e48:	691b      	ldr	r3, [r3, #16]
   80e4a:	4798      	blx	r3
    // Clear content
    pinSetOutput(dcPort, dcPin, HIGH);
   80e4c:	4648      	mov	r0, r9
   80e4e:	211c      	movs	r1, #28
   80e50:	4652      	mov	r2, sl
   80e52:	47b8      	blx	r7

    // Transfer 0 for every buffer
    swp.data = 0x00;
   80e54:	f44f 6684 	mov.w	r6, #1056	; 0x420
   80e58:	f8ad 8008 	strh.w	r8, [sp, #8]
   80e5c:	46a8      	mov	r8, r5
    for (int i = 0; i < ((SSD1305Params*)params)->total_buffers; i++) {
        SPI::Instance().write(&swp);
   80e5e:	47c0      	blx	r8
   80e60:	6803      	ldr	r3, [r0, #0]
   80e62:	4621      	mov	r1, r4
   80e64:	689b      	ldr	r3, [r3, #8]
   80e66:	4798      	blx	r3
    // Clear content
    pinSetOutput(dcPort, dcPin, HIGH);

    // Transfer 0 for every buffer
    swp.data = 0x00;
    for (int i = 0; i < ((SSD1305Params*)params)->total_buffers; i++) {
   80e68:	3e01      	subs	r6, #1
        SPI::Instance().write(&swp);
   80e6a:	4d04      	ldr	r5, [pc, #16]	; (80e7c <_ZN7SSD13054openEPv+0x284>)
    // Clear content
    pinSetOutput(dcPort, dcPin, HIGH);

    // Transfer 0 for every buffer
    swp.data = 0x00;
    for (int i = 0; i < ((SSD1305Params*)params)->total_buffers; i++) {
   80e6c:	d1f7      	bne.n	80e5e <_ZN7SSD13054openEPv+0x266>
   80e6e:	e007      	b.n	80e80 <_ZN7SSD13054openEPv+0x288>
   80e70:	00080255 	.word	0x00080255
   80e74:	000803e1 	.word	0x000803e1
   80e78:	00080429 	.word	0x00080429
   80e7c:	00080bbd 	.word	0x00080bbd
        SPI::Instance().write(&swp);
    }

    SPI::Instance().ioctl(SPI_BLOCK_UNTIL_TRANSFERRED, NULL);
   80e80:	47a8      	blx	r5
   80e82:	6803      	ldr	r3, [r0, #0]
   80e84:	4631      	mov	r1, r6
   80e86:	691b      	ldr	r3, [r3, #16]
   80e88:	4632      	mov	r2, r6
   80e8a:	4798      	blx	r3
    pinSetOutput(dcPort, dcPin, LOW);
   80e8c:	4632      	mov	r2, r6
   80e8e:	211c      	movs	r1, #28
   80e90:	2002      	movs	r0, #2
   80e92:	47b8      	blx	r7

    swp.data = 0xAF;
   80e94:	23af      	movs	r3, #175	; 0xaf
   80e96:	f8ad 3008 	strh.w	r3, [sp, #8]
    swp.mode = SPI_LAST;
   80e9a:	9603      	str	r6, [sp, #12]
    SPI::Instance().write(&swp);
   80e9c:	47a8      	blx	r5
   80e9e:	6803      	ldr	r3, [r0, #0]
   80ea0:	4621      	mov	r1, r4
   80ea2:	689b      	ldr	r3, [r3, #8]
   80ea4:	4798      	blx	r3

    return 0;
 }
   80ea6:	4630      	mov	r0, r6
   80ea8:	b004      	add	sp, #16
   80eaa:	e8bd 87f0 	ldmia.w	sp!, {r4, r5, r6, r7, r8, r9, sl, pc}
   80eae:	bf00      	nop

00080eb0 <_ZN7SSD13055writeEPv>:

 int SSD1305::close() {
    return 0;
 }

 int SSD1305::write( void* params) {
   80eb0:	b5f7      	push	{r0, r1, r2, r4, r5, r6, r7, lr}
    SSD1305Params *ssdp = (SSD1305Params*)params;

    pinSetOutput(dcPort, dcPin, HIGH);
   80eb2:	4b1f      	ldr	r3, [pc, #124]	; (80f30 <_ZN7SSD13055writeEPv+0x80>)

 int SSD1305::close() {
    return 0;
 }

 int SSD1305::write( void* params) {
   80eb4:	460f      	mov	r7, r1
    SSD1305Params *ssdp = (SSD1305Params*)params;

    pinSetOutput(dcPort, dcPin, HIGH);
   80eb6:	2002      	movs	r0, #2
   80eb8:	211c      	movs	r1, #28
   80eba:	2201      	movs	r2, #1
   80ebc:	4798      	blx	r3
    SPIWriteParams swp;
    
    // transfer color data (we don't use this)
    swp.data = 0x00;
   80ebe:	2300      	movs	r3, #0
   80ec0:	f8ad 3000 	strh.w	r3, [sp]
    swp.mode = SPI_CONTINUE;
   80ec4:	2301      	movs	r3, #1
   80ec6:	9301      	str	r3, [sp, #4]
   80ec8:	f44f 7405 	mov.w	r4, #532	; 0x214
    for (int i = 0; i < ssdp->junk_buffer; i++) {
        SPI::Instance().write(&swp);
   80ecc:	4e19      	ldr	r6, [pc, #100]	; (80f34 <_ZN7SSD13055writeEPv+0x84>)
   80ece:	47b0      	blx	r6
   80ed0:	6803      	ldr	r3, [r0, #0]
   80ed2:	4669      	mov	r1, sp
   80ed4:	689b      	ldr	r3, [r3, #8]
   80ed6:	4798      	blx	r3
    SPIWriteParams swp;
    
    // transfer color data (we don't use this)
    swp.data = 0x00;
    swp.mode = SPI_CONTINUE;
    for (int i = 0; i < ssdp->junk_buffer; i++) {
   80ed8:	3c01      	subs	r4, #1
   80eda:	d1f7      	bne.n	80ecc <_ZN7SSD13055writeEPv+0x1c>
        SPI::Instance().write(&swp);
    }

    for (int i = 0; i < ssdp->visible_buffers; i++) {
        swp.data = ssdp->buffer[i];
   80edc:	5d3b      	ldrb	r3, [r7, r4]
   80ede:	f8ad 3000 	strh.w	r3, [sp]
        if (i == ssdp->visible_buffers - 1)
   80ee2:	f240 13ff 	movw	r3, #511	; 0x1ff
   80ee6:	429c      	cmp	r4, r3
            swp.mode = SPI_LAST;
   80ee8:	bf04      	itt	eq
   80eea:	2300      	moveq	r3, #0
   80eec:	9301      	streq	r3, [sp, #4]
        SPI::Instance().write(&swp);
   80eee:	47b0      	blx	r6
   80ef0:	6803      	ldr	r3, [r0, #0]
   80ef2:	4669      	mov	r1, sp
   80ef4:	689b      	ldr	r3, [r3, #8]
   80ef6:	4798      	blx	r3

        if (i % ssdp->width == ssdp->width - 1 && i != ssdp->visible_buffers - 1) {
   80ef8:	f004 037f 	and.w	r3, r4, #127	; 0x7f
   80efc:	2b7f      	cmp	r3, #127	; 0x7f
   80efe:	d006      	beq.n	80f0e <_ZN7SSD13055writeEPv+0x5e>
    swp.mode = SPI_CONTINUE;
    for (int i = 0; i < ssdp->junk_buffer; i++) {
        SPI::Instance().write(&swp);
    }

    for (int i = 0; i < ssdp->visible_buffers; i++) {
   80f00:	3401      	adds	r4, #1
   80f02:	f5b4 7f00 	cmp.w	r4, #512	; 0x200
   80f06:	d1e9      	bne.n	80edc <_ZN7SSD13055writeEPv+0x2c>
            }
        }
    }

    return 0;
 }
   80f08:	2000      	movs	r0, #0
   80f0a:	b003      	add	sp, #12
   80f0c:	bdf0      	pop	{r4, r5, r6, r7, pc}
        swp.data = ssdp->buffer[i];
        if (i == ssdp->visible_buffers - 1)
            swp.mode = SPI_LAST;
        SPI::Instance().write(&swp);

        if (i % ssdp->width == ssdp->width - 1 && i != ssdp->visible_buffers - 1) {
   80f0e:	f240 13ff 	movw	r3, #511	; 0x1ff
   80f12:	429c      	cmp	r4, r3
   80f14:	d0f4      	beq.n	80f00 <_ZN7SSD13055writeEPv+0x50>
   80f16:	2504      	movs	r5, #4
            for (int j = 0; j < ssdp->blank; j++) {
                swp.data = 255;
   80f18:	23ff      	movs	r3, #255	; 0xff
   80f1a:	f8ad 3000 	strh.w	r3, [sp]
                SPI::Instance().write(&swp);
   80f1e:	47b0      	blx	r6
   80f20:	6803      	ldr	r3, [r0, #0]
   80f22:	4669      	mov	r1, sp
   80f24:	689b      	ldr	r3, [r3, #8]
   80f26:	4798      	blx	r3
        if (i == ssdp->visible_buffers - 1)
            swp.mode = SPI_LAST;
        SPI::Instance().write(&swp);

        if (i % ssdp->width == ssdp->width - 1 && i != ssdp->visible_buffers - 1) {
            for (int j = 0; j < ssdp->blank; j++) {
   80f28:	3d01      	subs	r5, #1
   80f2a:	d1f5      	bne.n	80f18 <_ZN7SSD13055writeEPv+0x68>
   80f2c:	e7e8      	b.n	80f00 <_ZN7SSD13055writeEPv+0x50>
   80f2e:	bf00      	nop
   80f30:	00080429 	.word	0x00080429
   80f34:	00080bbd 	.word	0x00080bbd

00080f38 <_ZN8Encoders8InstanceEv>:
    // Define as a singleton
    Encoders() {};
    Encoders(Encoders const&);
    void operator=(Encoders const&);
  public:
    static Encoders& Instance()
   80f38:	b510      	push	{r4, lr}
    {
        static Encoders instance;
   80f3a:	4c08      	ldr	r4, [pc, #32]	; (80f5c <_ZN8Encoders8InstanceEv+0x24>)
   80f3c:	6823      	ldr	r3, [r4, #0]
   80f3e:	07db      	lsls	r3, r3, #31
   80f40:	d409      	bmi.n	80f56 <_ZN8Encoders8InstanceEv+0x1e>
   80f42:	4620      	mov	r0, r4
   80f44:	4b06      	ldr	r3, [pc, #24]	; (80f60 <_ZN8Encoders8InstanceEv+0x28>)
   80f46:	4798      	blx	r3
   80f48:	b128      	cbz	r0, 80f56 <_ZN8Encoders8InstanceEv+0x1e>
    EncodersStatus readStatus;
    volatile uint8_t states[4];
    //volatile EncoderState *states[4];

    // Define as a singleton
    Encoders() {};
   80f4a:	4b06      	ldr	r3, [pc, #24]	; (80f64 <_ZN8Encoders8InstanceEv+0x2c>)
   80f4c:	4a06      	ldr	r2, [pc, #24]	; (80f68 <_ZN8Encoders8InstanceEv+0x30>)
    Encoders(Encoders const&);
    void operator=(Encoders const&);
  public:
    static Encoders& Instance()
    {
        static Encoders instance;
   80f4e:	4620      	mov	r0, r4
    EncodersStatus readStatus;
    volatile uint8_t states[4];
    //volatile EncoderState *states[4];

    // Define as a singleton
    Encoders() {};
   80f50:	601a      	str	r2, [r3, #0]
    Encoders(Encoders const&);
    void operator=(Encoders const&);
  public:
    static Encoders& Instance()
    {
        static Encoders instance;
   80f52:	4b06      	ldr	r3, [pc, #24]	; (80f6c <_ZN8Encoders8InstanceEv+0x34>)
   80f54:	4798      	blx	r3
        return instance;
    }
   80f56:	4803      	ldr	r0, [pc, #12]	; (80f64 <_ZN8Encoders8InstanceEv+0x2c>)
   80f58:	bd10      	pop	{r4, pc}
   80f5a:	bf00      	nop
   80f5c:	200002b0 	.word	0x200002b0
   80f60:	00080ff5 	.word	0x00080ff5
   80f64:	20000298 	.word	0x20000298
   80f68:	000822b0 	.word	0x000822b0
   80f6c:	00081011 	.word	0x00081011

00080f70 <main>:
 * \brief Application entry point.
 *
 * \return Unused (ANSI-C compatibility).
 */
int main(void)
{
   80f70:	e92d 41f0 	stmdb	sp!, {r4, r5, r6, r7, r8, lr}
    /* Initialize the SAM system */
    SystemInit();
   80f74:	4b18      	ldr	r3, [pc, #96]	; (80fd8 <main+0x68>)
 * \brief Application entry point.
 *
 * \return Unused (ANSI-C compatibility).
 */
int main(void)
{
   80f76:	f5ad 7d04 	sub.w	sp, sp, #528	; 0x210
    SystemInit();

    //Reporting::Instance().reportCode(PRIORITY_DEBUG, LIGHTS, 0xDEADBEEF);

    Display disp = Display();
    volatile int x = 0;
   80f7a:	2400      	movs	r4, #0
 * \return Unused (ANSI-C compatibility).
 */
int main(void)
{
    /* Initialize the SAM system */
    SystemInit();
   80f7c:	4798      	blx	r3

    //Reporting::Instance().reportCode(PRIORITY_DEBUG, LIGHTS, 0xDEADBEEF);

    Display disp = Display();
    volatile int x = 0;
    Encoders::Instance().open(NULL);
   80f7e:	4e17      	ldr	r6, [pc, #92]	; (80fdc <main+0x6c>)
    /* Initialize the SAM system */
    SystemInit();

    //Reporting::Instance().reportCode(PRIORITY_DEBUG, LIGHTS, 0xDEADBEEF);

    Display disp = Display();
   80f80:	4b17      	ldr	r3, [pc, #92]	; (80fe0 <main+0x70>)
   80f82:	a804      	add	r0, sp, #16
   80f84:	4798      	blx	r3
    volatile int x = 0;
   80f86:	9403      	str	r4, [sp, #12]
    Encoders::Instance().open(NULL);
   80f88:	47b0      	blx	r6
   80f8a:	6803      	ldr	r3, [r0, #0]
    //Reporting::Instance().reportCode(PRIORITY_DEBUG, LIGHTS, 0xAAAA5555);
    disp.drawText(0, 0, SMALL_FONT, "hello\nworld!");
   80f8c:	4d15      	ldr	r5, [pc, #84]	; (80fe4 <main+0x74>)

    //Reporting::Instance().reportCode(PRIORITY_DEBUG, LIGHTS, 0xDEADBEEF);

    Display disp = Display();
    volatile int x = 0;
    Encoders::Instance().open(NULL);
   80f8e:	4621      	mov	r1, r4
   80f90:	681b      	ldr	r3, [r3, #0]
   80f92:	4798      	blx	r3
    //Reporting::Instance().reportCode(PRIORITY_DEBUG, LIGHTS, 0xAAAA5555);
    disp.drawText(0, 0, SMALL_FONT, "hello\nworld!");
   80f94:	4621      	mov	r1, r4
   80f96:	4622      	mov	r2, r4
   80f98:	4623      	mov	r3, r4
   80f9a:	a804      	add	r0, sp, #16
   80f9c:	9500      	str	r5, [sp, #0]
   80f9e:	4c12      	ldr	r4, [pc, #72]	; (80fe8 <main+0x78>)
   80fa0:	47a0      	blx	r4
    disp.paint();
   80fa2:	f8df 804c 	ldr.w	r8, [pc, #76]	; 80ff0 <main+0x80>
   80fa6:	a804      	add	r0, sp, #16

    disp.clear();
   80fa8:	4f10      	ldr	r7, [pc, #64]	; (80fec <main+0x7c>)
    Display disp = Display();
    volatile int x = 0;
    Encoders::Instance().open(NULL);
    //Reporting::Instance().reportCode(PRIORITY_DEBUG, LIGHTS, 0xAAAA5555);
    disp.drawText(0, 0, SMALL_FONT, "hello\nworld!");
    disp.paint();
   80faa:	47c0      	blx	r8

    disp.clear();
   80fac:	a804      	add	r0, sp, #16
   80fae:	47b8      	blx	r7
    //pinSetMode(A, 8, OUTPUT);
    //pinDisablePullup(A, 8);
    while (1) 
    {
        EncodersStatus *eStat = (EncodersStatus*)Encoders::Instance().read();
   80fb0:	47b0      	blx	r6
   80fb2:	6803      	ldr	r3, [r0, #0]
   80fb4:	68db      	ldr	r3, [r3, #12]
   80fb6:	4798      	blx	r3
        x += eStat->relative_position[0];
   80fb8:	9b03      	ldr	r3, [sp, #12]
   80fba:	f9b0 2000 	ldrsh.w	r2, [r0]

        //pinSetOutput(A, 8, HIGH);
        //pinSetOutput(A, 8, LOW);
        disp.drawText(x, 0, SMALL_FONT, "hello\nworld!");
   80fbe:	a804      	add	r0, sp, #16
    //pinSetMode(A, 8, OUTPUT);
    //pinDisablePullup(A, 8);
    while (1) 
    {
        EncodersStatus *eStat = (EncodersStatus*)Encoders::Instance().read();
        x += eStat->relative_position[0];
   80fc0:	4413      	add	r3, r2
   80fc2:	9303      	str	r3, [sp, #12]

        //pinSetOutput(A, 8, HIGH);
        //pinSetOutput(A, 8, LOW);
        disp.drawText(x, 0, SMALL_FONT, "hello\nworld!");
   80fc4:	9903      	ldr	r1, [sp, #12]
   80fc6:	2200      	movs	r2, #0
   80fc8:	b2c9      	uxtb	r1, r1
   80fca:	4613      	mov	r3, r2
   80fcc:	9500      	str	r5, [sp, #0]
   80fce:	47a0      	blx	r4
        //REG_PIOD_CODR |= pin_11_mask;

        //for (int i = 0; i < 5000; i++) {
        //    x+=i;
        //}
        disp.paint();
   80fd0:	a804      	add	r0, sp, #16
   80fd2:	47c0      	blx	r8
        disp.clear();
   80fd4:	a804      	add	r0, sp, #16
   80fd6:	e7ea      	b.n	80fae <main+0x3e>
   80fd8:	000801bd 	.word	0x000801bd
   80fdc:	00080f39 	.word	0x00080f39
   80fe0:	000806c1 	.word	0x000806c1
   80fe4:	00082320 	.word	0x00082320
   80fe8:	00080715 	.word	0x00080715
   80fec:	000807fd 	.word	0x000807fd
   80ff0:	0008080d 	.word	0x0008080d

00080ff4 <__cxa_guard_acquire>:
   80ff4:	b508      	push	{r3, lr}
   80ff6:	6803      	ldr	r3, [r0, #0]
   80ff8:	07db      	lsls	r3, r3, #31
   80ffa:	d407      	bmi.n	8100c <__cxa_guard_acquire+0x18>
   80ffc:	7843      	ldrb	r3, [r0, #1]
   80ffe:	b10b      	cbz	r3, 81004 <__cxa_guard_acquire+0x10>
   81000:	f000 ff30 	bl	81e64 <abort>
   81004:	2301      	movs	r3, #1
   81006:	7043      	strb	r3, [r0, #1]
   81008:	4618      	mov	r0, r3
   8100a:	bd08      	pop	{r3, pc}
   8100c:	2000      	movs	r0, #0
   8100e:	bd08      	pop	{r3, pc}

00081010 <__cxa_guard_release>:
   81010:	2301      	movs	r3, #1
   81012:	6003      	str	r3, [r0, #0]
   81014:	4770      	bx	lr
	...

00081018 <log2>:
   81018:	b508      	push	{r3, lr}
   8101a:	f000 f80d 	bl	81038 <log>
   8101e:	a304      	add	r3, pc, #16	; (adr r3, 81030 <log2+0x18>)
   81020:	e9d3 2300 	ldrd	r2, r3, [r3]
   81024:	f000 fd86 	bl	81b34 <__aeabi_ddiv>
   81028:	bd08      	pop	{r3, pc}
   8102a:	bf00      	nop
   8102c:	f3af 8000 	nop.w
   81030:	fefa39ef 	.word	0xfefa39ef
   81034:	3fe62e42 	.word	0x3fe62e42

00081038 <log>:
   81038:	e92d 41f0 	stmdb	sp!, {r4, r5, r6, r7, r8, lr}
   8103c:	b08a      	sub	sp, #40	; 0x28
   8103e:	4604      	mov	r4, r0
   81040:	460d      	mov	r5, r1
   81042:	f000 f86d 	bl	81120 <__ieee754_log>
   81046:	f8df 80d0 	ldr.w	r8, [pc, #208]	; 81118 <log+0xe0>
   8104a:	4606      	mov	r6, r0
   8104c:	f998 3000 	ldrsb.w	r3, [r8]
   81050:	460f      	mov	r7, r1
   81052:	3301      	adds	r3, #1
   81054:	d00b      	beq.n	8106e <log+0x36>
   81056:	4620      	mov	r0, r4
   81058:	4629      	mov	r1, r5
   8105a:	f000 fa59 	bl	81510 <__fpclassifyd>
   8105e:	b130      	cbz	r0, 8106e <log+0x36>
   81060:	4620      	mov	r0, r4
   81062:	4629      	mov	r1, r5
   81064:	2200      	movs	r2, #0
   81066:	2300      	movs	r3, #0
   81068:	f000 feca 	bl	81e00 <__aeabi_dcmpgt>
   8106c:	b120      	cbz	r0, 81078 <log+0x40>
   8106e:	4630      	mov	r0, r6
   81070:	4639      	mov	r1, r7
   81072:	b00a      	add	sp, #40	; 0x28
   81074:	e8bd 81f0 	ldmia.w	sp!, {r4, r5, r6, r7, r8, pc}
   81078:	4b23      	ldr	r3, [pc, #140]	; (81108 <log+0xd0>)
   8107a:	f898 6000 	ldrb.w	r6, [r8]
   8107e:	9008      	str	r0, [sp, #32]
   81080:	e9cd 4502 	strd	r4, r5, [sp, #8]
   81084:	e9cd 4504 	strd	r4, r5, [sp, #16]
   81088:	9301      	str	r3, [sp, #4]
   8108a:	bb46      	cbnz	r6, 810de <log+0xa6>
   8108c:	4b1f      	ldr	r3, [pc, #124]	; (8110c <log+0xd4>)
   8108e:	f04f 4260 	mov.w	r2, #3758096384	; 0xe0000000
   81092:	e9cd 2306 	strd	r2, r3, [sp, #24]
   81096:	4620      	mov	r0, r4
   81098:	4629      	mov	r1, r5
   8109a:	2200      	movs	r2, #0
   8109c:	2300      	movs	r3, #0
   8109e:	f000 fe87 	bl	81db0 <__aeabi_dcmpeq>
   810a2:	b170      	cbz	r0, 810c2 <log+0x8a>
   810a4:	2302      	movs	r3, #2
   810a6:	429e      	cmp	r6, r3
   810a8:	9300      	str	r3, [sp, #0]
   810aa:	d022      	beq.n	810f2 <log+0xba>
   810ac:	4668      	mov	r0, sp
   810ae:	f000 fa57 	bl	81560 <matherr>
   810b2:	b1f0      	cbz	r0, 810f2 <log+0xba>
   810b4:	9b08      	ldr	r3, [sp, #32]
   810b6:	bb0b      	cbnz	r3, 810fc <log+0xc4>
   810b8:	e9dd 0106 	ldrd	r0, r1, [sp, #24]
   810bc:	b00a      	add	sp, #40	; 0x28
   810be:	e8bd 81f0 	ldmia.w	sp!, {r4, r5, r6, r7, r8, pc}
   810c2:	2301      	movs	r3, #1
   810c4:	2e02      	cmp	r6, #2
   810c6:	9300      	str	r3, [sp, #0]
   810c8:	d00e      	beq.n	810e8 <log+0xb0>
   810ca:	4668      	mov	r0, sp
   810cc:	f000 fa48 	bl	81560 <matherr>
   810d0:	b150      	cbz	r0, 810e8 <log+0xb0>
   810d2:	480f      	ldr	r0, [pc, #60]	; (81110 <log+0xd8>)
   810d4:	f000 fa46 	bl	81564 <nan>
   810d8:	e9cd 0106 	strd	r0, r1, [sp, #24]
   810dc:	e7ea      	b.n	810b4 <log+0x7c>
   810de:	4b0d      	ldr	r3, [pc, #52]	; (81114 <log+0xdc>)
   810e0:	2200      	movs	r2, #0
   810e2:	e9cd 2306 	strd	r2, r3, [sp, #24]
   810e6:	e7d6      	b.n	81096 <log+0x5e>
   810e8:	f000 fec4 	bl	81e74 <__errno>
   810ec:	2321      	movs	r3, #33	; 0x21
   810ee:	6003      	str	r3, [r0, #0]
   810f0:	e7ef      	b.n	810d2 <log+0x9a>
   810f2:	f000 febf 	bl	81e74 <__errno>
   810f6:	2322      	movs	r3, #34	; 0x22
   810f8:	6003      	str	r3, [r0, #0]
   810fa:	e7db      	b.n	810b4 <log+0x7c>
   810fc:	f000 feba 	bl	81e74 <__errno>
   81100:	9b08      	ldr	r3, [sp, #32]
   81102:	6003      	str	r3, [r0, #0]
   81104:	e7d8      	b.n	810b8 <log+0x80>
   81106:	bf00      	nop
   81108:	00082330 	.word	0x00082330
   8110c:	c7efffff 	.word	0xc7efffff
   81110:	00082334 	.word	0x00082334
   81114:	fff00000 	.word	0xfff00000
   81118:	20000004 	.word	0x20000004
   8111c:	00000000 	.word	0x00000000

00081120 <__ieee754_log>:
   81120:	e92d 4ff0 	stmdb	sp!, {r4, r5, r6, r7, r8, r9, sl, fp, lr}
   81124:	f5b1 1f80 	cmp.w	r1, #1048576	; 0x100000
   81128:	b087      	sub	sp, #28
   8112a:	4602      	mov	r2, r0
   8112c:	460b      	mov	r3, r1
   8112e:	460f      	mov	r7, r1
   81130:	da5b      	bge.n	811ea <__ieee754_log+0xca>
   81132:	f021 4600 	bic.w	r6, r1, #2147483648	; 0x80000000
   81136:	4306      	orrs	r6, r0
   81138:	f000 80f5 	beq.w	81326 <__ieee754_log+0x206>
   8113c:	2900      	cmp	r1, #0
   8113e:	f2c0 81a4 	blt.w	8148a <__ieee754_log+0x36a>
   81142:	2200      	movs	r2, #0
   81144:	4bb2      	ldr	r3, [pc, #712]	; (81410 <__ieee754_log+0x2f0>)
   81146:	f000 fbcb 	bl	818e0 <__aeabi_dmul>
   8114a:	460f      	mov	r7, r1
   8114c:	460b      	mov	r3, r1
   8114e:	49b1      	ldr	r1, [pc, #708]	; (81414 <__ieee754_log+0x2f4>)
   81150:	4602      	mov	r2, r0
   81152:	428f      	cmp	r7, r1
   81154:	f06f 0535 	mvn.w	r5, #53	; 0x35
   81158:	dc4b      	bgt.n	811f2 <__ieee754_log+0xd2>
   8115a:	f3c7 0613 	ubfx	r6, r7, #0, #20
   8115e:	f506 2115 	add.w	r1, r6, #610304	; 0x95000
   81162:	f601 7164 	addw	r1, r1, #3940	; 0xf64
   81166:	f401 1480 	and.w	r4, r1, #1048576	; 0x100000
   8116a:	f084 517f 	eor.w	r1, r4, #1069547520	; 0x3fc00000
   8116e:	f481 1140 	eor.w	r1, r1, #3145728	; 0x300000
   81172:	ea41 0306 	orr.w	r3, r1, r6
   81176:	4610      	mov	r0, r2
   81178:	4619      	mov	r1, r3
   8117a:	2200      	movs	r2, #0
   8117c:	4ba6      	ldr	r3, [pc, #664]	; (81418 <__ieee754_log+0x2f8>)
   8117e:	f000 f9fb 	bl	81578 <__aeabi_dsub>
   81182:	ea4f 5827 	mov.w	r8, r7, asr #20
   81186:	1cb3      	adds	r3, r6, #2
   81188:	f2a8 38ff 	subw	r8, r8, #1023	; 0x3ff
   8118c:	f3c3 0313 	ubfx	r3, r3, #0, #20
   81190:	44a8      	add	r8, r5
   81192:	2b02      	cmp	r3, #2
   81194:	eb08 5814 	add.w	r8, r8, r4, lsr #20
   81198:	4682      	mov	sl, r0
   8119a:	468b      	mov	fp, r1
   8119c:	f04f 0200 	mov.w	r2, #0
   811a0:	dc2e      	bgt.n	81200 <__ieee754_log+0xe0>
   811a2:	2300      	movs	r3, #0
   811a4:	f000 fe04 	bl	81db0 <__aeabi_dcmpeq>
   811a8:	2800      	cmp	r0, #0
   811aa:	f000 80c5 	beq.w	81338 <__ieee754_log+0x218>
   811ae:	f1b8 0f00 	cmp.w	r8, #0
   811b2:	f000 8171 	beq.w	81498 <__ieee754_log+0x378>
   811b6:	4640      	mov	r0, r8
   811b8:	f000 fb2c 	bl	81814 <__aeabi_i2d>
   811bc:	a380      	add	r3, pc, #512	; (adr r3, 813c0 <__ieee754_log+0x2a0>)
   811be:	e9d3 2300 	ldrd	r2, r3, [r3]
   811c2:	4606      	mov	r6, r0
   811c4:	460f      	mov	r7, r1
   811c6:	f000 fb8b 	bl	818e0 <__aeabi_dmul>
   811ca:	a37f      	add	r3, pc, #508	; (adr r3, 813c8 <__ieee754_log+0x2a8>)
   811cc:	e9d3 2300 	ldrd	r2, r3, [r3]
   811d0:	4604      	mov	r4, r0
   811d2:	460d      	mov	r5, r1
   811d4:	4630      	mov	r0, r6
   811d6:	4639      	mov	r1, r7
   811d8:	f000 fb82 	bl	818e0 <__aeabi_dmul>
   811dc:	4602      	mov	r2, r0
   811de:	460b      	mov	r3, r1
   811e0:	4620      	mov	r0, r4
   811e2:	4629      	mov	r1, r5
   811e4:	f000 f9ca 	bl	8157c <__adddf3>
   811e8:	e007      	b.n	811fa <__ieee754_log+0xda>
   811ea:	498a      	ldr	r1, [pc, #552]	; (81414 <__ieee754_log+0x2f4>)
   811ec:	2500      	movs	r5, #0
   811ee:	428f      	cmp	r7, r1
   811f0:	ddb3      	ble.n	8115a <__ieee754_log+0x3a>
   811f2:	4610      	mov	r0, r2
   811f4:	4619      	mov	r1, r3
   811f6:	f000 f9c1 	bl	8157c <__adddf3>
   811fa:	b007      	add	sp, #28
   811fc:	e8bd 8ff0 	ldmia.w	sp!, {r4, r5, r6, r7, r8, r9, sl, fp, pc}
   81200:	f04f 4380 	mov.w	r3, #1073741824	; 0x40000000
   81204:	f000 f9ba 	bl	8157c <__adddf3>
   81208:	4602      	mov	r2, r0
   8120a:	460b      	mov	r3, r1
   8120c:	4650      	mov	r0, sl
   8120e:	4659      	mov	r1, fp
   81210:	f000 fc90 	bl	81b34 <__aeabi_ddiv>
   81214:	e9cd 0102 	strd	r0, r1, [sp, #8]
   81218:	4640      	mov	r0, r8
   8121a:	f000 fafb 	bl	81814 <__aeabi_i2d>
   8121e:	e9cd 0104 	strd	r0, r1, [sp, #16]
   81222:	e9dd 0102 	ldrd	r0, r1, [sp, #8]
   81226:	4602      	mov	r2, r0
   81228:	460b      	mov	r3, r1
   8122a:	f000 fb59 	bl	818e0 <__aeabi_dmul>
   8122e:	4602      	mov	r2, r0
   81230:	460b      	mov	r3, r1
   81232:	e9cd 0100 	strd	r0, r1, [sp]
   81236:	f000 fb53 	bl	818e0 <__aeabi_dmul>
   8123a:	a365      	add	r3, pc, #404	; (adr r3, 813d0 <__ieee754_log+0x2b0>)
   8123c:	e9d3 2300 	ldrd	r2, r3, [r3]
   81240:	4604      	mov	r4, r0
   81242:	460d      	mov	r5, r1
   81244:	f000 fb4c 	bl	818e0 <__aeabi_dmul>
   81248:	a363      	add	r3, pc, #396	; (adr r3, 813d8 <__ieee754_log+0x2b8>)
   8124a:	e9d3 2300 	ldrd	r2, r3, [r3]
   8124e:	f000 f995 	bl	8157c <__adddf3>
   81252:	4622      	mov	r2, r4
   81254:	462b      	mov	r3, r5
   81256:	f000 fb43 	bl	818e0 <__aeabi_dmul>
   8125a:	a361      	add	r3, pc, #388	; (adr r3, 813e0 <__ieee754_log+0x2c0>)
   8125c:	e9d3 2300 	ldrd	r2, r3, [r3]
   81260:	f000 f98c 	bl	8157c <__adddf3>
   81264:	4622      	mov	r2, r4
   81266:	462b      	mov	r3, r5
   81268:	f000 fb3a 	bl	818e0 <__aeabi_dmul>
   8126c:	a35e      	add	r3, pc, #376	; (adr r3, 813e8 <__ieee754_log+0x2c8>)
   8126e:	e9d3 2300 	ldrd	r2, r3, [r3]
   81272:	f000 f983 	bl	8157c <__adddf3>
   81276:	e9dd 2300 	ldrd	r2, r3, [sp]
   8127a:	f000 fb31 	bl	818e0 <__aeabi_dmul>
   8127e:	a35c      	add	r3, pc, #368	; (adr r3, 813f0 <__ieee754_log+0x2d0>)
   81280:	e9d3 2300 	ldrd	r2, r3, [r3]
   81284:	e9cd 0100 	strd	r0, r1, [sp]
   81288:	4620      	mov	r0, r4
   8128a:	4629      	mov	r1, r5
   8128c:	f000 fb28 	bl	818e0 <__aeabi_dmul>
   81290:	a359      	add	r3, pc, #356	; (adr r3, 813f8 <__ieee754_log+0x2d8>)
   81292:	e9d3 2300 	ldrd	r2, r3, [r3]
   81296:	f000 f971 	bl	8157c <__adddf3>
   8129a:	4622      	mov	r2, r4
   8129c:	462b      	mov	r3, r5
   8129e:	f000 fb1f 	bl	818e0 <__aeabi_dmul>
   812a2:	a357      	add	r3, pc, #348	; (adr r3, 81400 <__ieee754_log+0x2e0>)
   812a4:	e9d3 2300 	ldrd	r2, r3, [r3]
   812a8:	f000 f968 	bl	8157c <__adddf3>
   812ac:	4622      	mov	r2, r4
   812ae:	462b      	mov	r3, r5
   812b0:	f000 fb16 	bl	818e0 <__aeabi_dmul>
   812b4:	460b      	mov	r3, r1
   812b6:	4602      	mov	r2, r0
   812b8:	e9dd 0100 	ldrd	r0, r1, [sp]
   812bc:	f000 f95e 	bl	8157c <__adddf3>
   812c0:	f5a6 23c2 	sub.w	r3, r6, #397312	; 0x61000
   812c4:	f5c6 26d7 	rsb	r6, r6, #440320	; 0x6b800
   812c8:	f2a3 437a 	subw	r3, r3, #1146	; 0x47a
   812cc:	3651      	adds	r6, #81	; 0x51
   812ce:	431e      	orrs	r6, r3
   812d0:	2e00      	cmp	r6, #0
   812d2:	4604      	mov	r4, r0
   812d4:	460d      	mov	r5, r1
   812d6:	dd57      	ble.n	81388 <__ieee754_log+0x268>
   812d8:	2200      	movs	r2, #0
   812da:	4b50      	ldr	r3, [pc, #320]	; (8141c <__ieee754_log+0x2fc>)
   812dc:	4650      	mov	r0, sl
   812de:	4659      	mov	r1, fp
   812e0:	f000 fafe 	bl	818e0 <__aeabi_dmul>
   812e4:	4652      	mov	r2, sl
   812e6:	465b      	mov	r3, fp
   812e8:	f000 fafa 	bl	818e0 <__aeabi_dmul>
   812ec:	4606      	mov	r6, r0
   812ee:	460f      	mov	r7, r1
   812f0:	f1b8 0f00 	cmp.w	r8, #0
   812f4:	f040 8096 	bne.w	81424 <__ieee754_log+0x304>
   812f8:	4622      	mov	r2, r4
   812fa:	462b      	mov	r3, r5
   812fc:	f000 f93e 	bl	8157c <__adddf3>
   81300:	e9dd 2302 	ldrd	r2, r3, [sp, #8]
   81304:	f000 faec 	bl	818e0 <__aeabi_dmul>
   81308:	4602      	mov	r2, r0
   8130a:	460b      	mov	r3, r1
   8130c:	4630      	mov	r0, r6
   8130e:	4639      	mov	r1, r7
   81310:	f000 f932 	bl	81578 <__aeabi_dsub>
   81314:	4602      	mov	r2, r0
   81316:	460b      	mov	r3, r1
   81318:	4650      	mov	r0, sl
   8131a:	4659      	mov	r1, fp
   8131c:	f000 f92c 	bl	81578 <__aeabi_dsub>
   81320:	b007      	add	sp, #28
   81322:	e8bd 8ff0 	ldmia.w	sp!, {r4, r5, r6, r7, r8, r9, sl, fp, pc}
   81326:	2200      	movs	r2, #0
   81328:	2300      	movs	r3, #0
   8132a:	2000      	movs	r0, #0
   8132c:	493c      	ldr	r1, [pc, #240]	; (81420 <__ieee754_log+0x300>)
   8132e:	f000 fc01 	bl	81b34 <__aeabi_ddiv>
   81332:	b007      	add	sp, #28
   81334:	e8bd 8ff0 	ldmia.w	sp!, {r4, r5, r6, r7, r8, r9, sl, fp, pc}
   81338:	4652      	mov	r2, sl
   8133a:	465b      	mov	r3, fp
   8133c:	4650      	mov	r0, sl
   8133e:	4659      	mov	r1, fp
   81340:	f000 face 	bl	818e0 <__aeabi_dmul>
   81344:	a330      	add	r3, pc, #192	; (adr r3, 81408 <__ieee754_log+0x2e8>)
   81346:	e9d3 2300 	ldrd	r2, r3, [r3]
   8134a:	4604      	mov	r4, r0
   8134c:	460d      	mov	r5, r1
   8134e:	4650      	mov	r0, sl
   81350:	4659      	mov	r1, fp
   81352:	f000 fac5 	bl	818e0 <__aeabi_dmul>
   81356:	4602      	mov	r2, r0
   81358:	460b      	mov	r3, r1
   8135a:	2000      	movs	r0, #0
   8135c:	492f      	ldr	r1, [pc, #188]	; (8141c <__ieee754_log+0x2fc>)
   8135e:	f000 f90b 	bl	81578 <__aeabi_dsub>
   81362:	4602      	mov	r2, r0
   81364:	460b      	mov	r3, r1
   81366:	4620      	mov	r0, r4
   81368:	4629      	mov	r1, r5
   8136a:	f000 fab9 	bl	818e0 <__aeabi_dmul>
   8136e:	4604      	mov	r4, r0
   81370:	460d      	mov	r5, r1
   81372:	f1b8 0f00 	cmp.w	r8, #0
   81376:	f040 8092 	bne.w	8149e <__ieee754_log+0x37e>
   8137a:	4650      	mov	r0, sl
   8137c:	4659      	mov	r1, fp
   8137e:	4622      	mov	r2, r4
   81380:	462b      	mov	r3, r5
   81382:	f000 f8f9 	bl	81578 <__aeabi_dsub>
   81386:	e738      	b.n	811fa <__ieee754_log+0xda>
   81388:	f1b8 0f00 	cmp.w	r8, #0
   8138c:	f000 80ab 	beq.w	814e6 <__ieee754_log+0x3c6>
   81390:	a30b      	add	r3, pc, #44	; (adr r3, 813c0 <__ieee754_log+0x2a0>)
   81392:	e9d3 2300 	ldrd	r2, r3, [r3]
   81396:	e9dd 0104 	ldrd	r0, r1, [sp, #16]
   8139a:	f000 faa1 	bl	818e0 <__aeabi_dmul>
   8139e:	4622      	mov	r2, r4
   813a0:	462b      	mov	r3, r5
   813a2:	4606      	mov	r6, r0
   813a4:	460f      	mov	r7, r1
   813a6:	4650      	mov	r0, sl
   813a8:	4659      	mov	r1, fp
   813aa:	f000 f8e5 	bl	81578 <__aeabi_dsub>
   813ae:	e9dd 2302 	ldrd	r2, r3, [sp, #8]
   813b2:	f000 fa95 	bl	818e0 <__aeabi_dmul>
   813b6:	4604      	mov	r4, r0
   813b8:	460d      	mov	r5, r1
   813ba:	e9dd 0104 	ldrd	r0, r1, [sp, #16]
   813be:	e07c      	b.n	814ba <__ieee754_log+0x39a>
   813c0:	fee00000 	.word	0xfee00000
   813c4:	3fe62e42 	.word	0x3fe62e42
   813c8:	35793c76 	.word	0x35793c76
   813cc:	3dea39ef 	.word	0x3dea39ef
   813d0:	df3e5244 	.word	0xdf3e5244
   813d4:	3fc2f112 	.word	0x3fc2f112
   813d8:	96cb03de 	.word	0x96cb03de
   813dc:	3fc74664 	.word	0x3fc74664
   813e0:	94229359 	.word	0x94229359
   813e4:	3fd24924 	.word	0x3fd24924
   813e8:	55555593 	.word	0x55555593
   813ec:	3fe55555 	.word	0x3fe55555
   813f0:	d078c69f 	.word	0xd078c69f
   813f4:	3fc39a09 	.word	0x3fc39a09
   813f8:	1d8e78af 	.word	0x1d8e78af
   813fc:	3fcc71c5 	.word	0x3fcc71c5
   81400:	9997fa04 	.word	0x9997fa04
   81404:	3fd99999 	.word	0x3fd99999
   81408:	55555555 	.word	0x55555555
   8140c:	3fd55555 	.word	0x3fd55555
   81410:	43500000 	.word	0x43500000
   81414:	7fefffff 	.word	0x7fefffff
   81418:	3ff00000 	.word	0x3ff00000
   8141c:	3fe00000 	.word	0x3fe00000
   81420:	c3500000 	.word	0xc3500000
   81424:	a336      	add	r3, pc, #216	; (adr r3, 81500 <__ieee754_log+0x3e0>)
   81426:	e9d3 2300 	ldrd	r2, r3, [r3]
   8142a:	e9dd 0104 	ldrd	r0, r1, [sp, #16]
   8142e:	f000 fa57 	bl	818e0 <__aeabi_dmul>
   81432:	4622      	mov	r2, r4
   81434:	4680      	mov	r8, r0
   81436:	4689      	mov	r9, r1
   81438:	462b      	mov	r3, r5
   8143a:	4630      	mov	r0, r6
   8143c:	4639      	mov	r1, r7
   8143e:	f000 f89d 	bl	8157c <__adddf3>
   81442:	e9dd 2302 	ldrd	r2, r3, [sp, #8]
   81446:	f000 fa4b 	bl	818e0 <__aeabi_dmul>
   8144a:	a32f      	add	r3, pc, #188	; (adr r3, 81508 <__ieee754_log+0x3e8>)
   8144c:	e9d3 2300 	ldrd	r2, r3, [r3]
   81450:	4604      	mov	r4, r0
   81452:	460d      	mov	r5, r1
   81454:	e9dd 0104 	ldrd	r0, r1, [sp, #16]
   81458:	f000 fa42 	bl	818e0 <__aeabi_dmul>
   8145c:	4602      	mov	r2, r0
   8145e:	460b      	mov	r3, r1
   81460:	4620      	mov	r0, r4
   81462:	4629      	mov	r1, r5
   81464:	f000 f88a 	bl	8157c <__adddf3>
   81468:	4602      	mov	r2, r0
   8146a:	460b      	mov	r3, r1
   8146c:	4630      	mov	r0, r6
   8146e:	4639      	mov	r1, r7
   81470:	f000 f882 	bl	81578 <__aeabi_dsub>
   81474:	4652      	mov	r2, sl
   81476:	465b      	mov	r3, fp
   81478:	f000 f87e 	bl	81578 <__aeabi_dsub>
   8147c:	4602      	mov	r2, r0
   8147e:	460b      	mov	r3, r1
   81480:	4640      	mov	r0, r8
   81482:	4649      	mov	r1, r9
   81484:	f000 f878 	bl	81578 <__aeabi_dsub>
   81488:	e6b7      	b.n	811fa <__ieee754_log+0xda>
   8148a:	f000 f875 	bl	81578 <__aeabi_dsub>
   8148e:	2200      	movs	r2, #0
   81490:	2300      	movs	r3, #0
   81492:	f000 fb4f 	bl	81b34 <__aeabi_ddiv>
   81496:	e6b0      	b.n	811fa <__ieee754_log+0xda>
   81498:	2000      	movs	r0, #0
   8149a:	2100      	movs	r1, #0
   8149c:	e6ad      	b.n	811fa <__ieee754_log+0xda>
   8149e:	4640      	mov	r0, r8
   814a0:	f000 f9b8 	bl	81814 <__aeabi_i2d>
   814a4:	a316      	add	r3, pc, #88	; (adr r3, 81500 <__ieee754_log+0x3e0>)
   814a6:	e9d3 2300 	ldrd	r2, r3, [r3]
   814aa:	4680      	mov	r8, r0
   814ac:	4689      	mov	r9, r1
   814ae:	f000 fa17 	bl	818e0 <__aeabi_dmul>
   814b2:	4606      	mov	r6, r0
   814b4:	460f      	mov	r7, r1
   814b6:	4640      	mov	r0, r8
   814b8:	4649      	mov	r1, r9
   814ba:	a313      	add	r3, pc, #76	; (adr r3, 81508 <__ieee754_log+0x3e8>)
   814bc:	e9d3 2300 	ldrd	r2, r3, [r3]
   814c0:	f000 fa0e 	bl	818e0 <__aeabi_dmul>
   814c4:	4602      	mov	r2, r0
   814c6:	460b      	mov	r3, r1
   814c8:	4620      	mov	r0, r4
   814ca:	4629      	mov	r1, r5
   814cc:	f000 f854 	bl	81578 <__aeabi_dsub>
   814d0:	4652      	mov	r2, sl
   814d2:	465b      	mov	r3, fp
   814d4:	f000 f850 	bl	81578 <__aeabi_dsub>
   814d8:	4602      	mov	r2, r0
   814da:	460b      	mov	r3, r1
   814dc:	4630      	mov	r0, r6
   814de:	4639      	mov	r1, r7
   814e0:	f000 f84a 	bl	81578 <__aeabi_dsub>
   814e4:	e689      	b.n	811fa <__ieee754_log+0xda>
   814e6:	4602      	mov	r2, r0
   814e8:	460b      	mov	r3, r1
   814ea:	4650      	mov	r0, sl
   814ec:	4659      	mov	r1, fp
   814ee:	f000 f843 	bl	81578 <__aeabi_dsub>
   814f2:	e9dd 2302 	ldrd	r2, r3, [sp, #8]
   814f6:	f000 f9f3 	bl	818e0 <__aeabi_dmul>
   814fa:	e70b      	b.n	81314 <__ieee754_log+0x1f4>
   814fc:	f3af 8000 	nop.w
   81500:	fee00000 	.word	0xfee00000
   81504:	3fe62e42 	.word	0x3fe62e42
   81508:	35793c76 	.word	0x35793c76
   8150c:	3dea39ef 	.word	0x3dea39ef

00081510 <__fpclassifyd>:
   81510:	f031 4300 	bics.w	r3, r1, #2147483648	; 0x80000000
   81514:	b410      	push	{r4}
   81516:	d008      	beq.n	8152a <__fpclassifyd+0x1a>
   81518:	4a0f      	ldr	r2, [pc, #60]	; (81558 <__fpclassifyd+0x48>)
   8151a:	f5a3 1480 	sub.w	r4, r3, #1048576	; 0x100000
   8151e:	4294      	cmp	r4, r2
   81520:	d80a      	bhi.n	81538 <__fpclassifyd+0x28>
   81522:	2004      	movs	r0, #4
   81524:	f85d 4b04 	ldr.w	r4, [sp], #4
   81528:	4770      	bx	lr
   8152a:	2800      	cmp	r0, #0
   8152c:	bf0c      	ite	eq
   8152e:	2002      	moveq	r0, #2
   81530:	2003      	movne	r0, #3
   81532:	f85d 4b04 	ldr.w	r4, [sp], #4
   81536:	4770      	bx	lr
   81538:	f5b3 1f80 	cmp.w	r3, #1048576	; 0x100000
   8153c:	d201      	bcs.n	81542 <__fpclassifyd+0x32>
   8153e:	2003      	movs	r0, #3
   81540:	e7f7      	b.n	81532 <__fpclassifyd+0x22>
   81542:	4a06      	ldr	r2, [pc, #24]	; (8155c <__fpclassifyd+0x4c>)
   81544:	4293      	cmp	r3, r2
   81546:	d001      	beq.n	8154c <__fpclassifyd+0x3c>
   81548:	2000      	movs	r0, #0
   8154a:	e7f2      	b.n	81532 <__fpclassifyd+0x22>
   8154c:	f1d0 0001 	rsbs	r0, r0, #1
   81550:	bf38      	it	cc
   81552:	2000      	movcc	r0, #0
   81554:	e7ed      	b.n	81532 <__fpclassifyd+0x22>
   81556:	bf00      	nop
   81558:	7fdfffff 	.word	0x7fdfffff
   8155c:	7ff00000 	.word	0x7ff00000

00081560 <matherr>:
   81560:	2000      	movs	r0, #0
   81562:	4770      	bx	lr

00081564 <nan>:
   81564:	2000      	movs	r0, #0
   81566:	4901      	ldr	r1, [pc, #4]	; (8156c <nan+0x8>)
   81568:	4770      	bx	lr
   8156a:	bf00      	nop
   8156c:	7ff80000 	.word	0x7ff80000

00081570 <__aeabi_drsub>:
   81570:	f081 4100 	eor.w	r1, r1, #2147483648	; 0x80000000
   81574:	e002      	b.n	8157c <__adddf3>
   81576:	bf00      	nop

00081578 <__aeabi_dsub>:
   81578:	f083 4300 	eor.w	r3, r3, #2147483648	; 0x80000000

0008157c <__adddf3>:
   8157c:	b530      	push	{r4, r5, lr}
   8157e:	ea4f 0441 	mov.w	r4, r1, lsl #1
   81582:	ea4f 0543 	mov.w	r5, r3, lsl #1
   81586:	ea94 0f05 	teq	r4, r5
   8158a:	bf08      	it	eq
   8158c:	ea90 0f02 	teqeq	r0, r2
   81590:	bf1f      	itttt	ne
   81592:	ea54 0c00 	orrsne.w	ip, r4, r0
   81596:	ea55 0c02 	orrsne.w	ip, r5, r2
   8159a:	ea7f 5c64 	mvnsne.w	ip, r4, asr #21
   8159e:	ea7f 5c65 	mvnsne.w	ip, r5, asr #21
   815a2:	f000 80e2 	beq.w	8176a <__adddf3+0x1ee>
   815a6:	ea4f 5454 	mov.w	r4, r4, lsr #21
   815aa:	ebd4 5555 	rsbs	r5, r4, r5, lsr #21
   815ae:	bfb8      	it	lt
   815b0:	426d      	neglt	r5, r5
   815b2:	dd0c      	ble.n	815ce <__adddf3+0x52>
   815b4:	442c      	add	r4, r5
   815b6:	ea80 0202 	eor.w	r2, r0, r2
   815ba:	ea81 0303 	eor.w	r3, r1, r3
   815be:	ea82 0000 	eor.w	r0, r2, r0
   815c2:	ea83 0101 	eor.w	r1, r3, r1
   815c6:	ea80 0202 	eor.w	r2, r0, r2
   815ca:	ea81 0303 	eor.w	r3, r1, r3
   815ce:	2d36      	cmp	r5, #54	; 0x36
   815d0:	bf88      	it	hi
   815d2:	bd30      	pophi	{r4, r5, pc}
   815d4:	f011 4f00 	tst.w	r1, #2147483648	; 0x80000000
   815d8:	ea4f 3101 	mov.w	r1, r1, lsl #12
   815dc:	f44f 1c80 	mov.w	ip, #1048576	; 0x100000
   815e0:	ea4c 3111 	orr.w	r1, ip, r1, lsr #12
   815e4:	d002      	beq.n	815ec <__adddf3+0x70>
   815e6:	4240      	negs	r0, r0
   815e8:	eb61 0141 	sbc.w	r1, r1, r1, lsl #1
   815ec:	f013 4f00 	tst.w	r3, #2147483648	; 0x80000000
   815f0:	ea4f 3303 	mov.w	r3, r3, lsl #12
   815f4:	ea4c 3313 	orr.w	r3, ip, r3, lsr #12
   815f8:	d002      	beq.n	81600 <__adddf3+0x84>
   815fa:	4252      	negs	r2, r2
   815fc:	eb63 0343 	sbc.w	r3, r3, r3, lsl #1
   81600:	ea94 0f05 	teq	r4, r5
   81604:	f000 80a7 	beq.w	81756 <__adddf3+0x1da>
   81608:	f1a4 0401 	sub.w	r4, r4, #1
   8160c:	f1d5 0e20 	rsbs	lr, r5, #32
   81610:	db0d      	blt.n	8162e <__adddf3+0xb2>
   81612:	fa02 fc0e 	lsl.w	ip, r2, lr
   81616:	fa22 f205 	lsr.w	r2, r2, r5
   8161a:	1880      	adds	r0, r0, r2
   8161c:	f141 0100 	adc.w	r1, r1, #0
   81620:	fa03 f20e 	lsl.w	r2, r3, lr
   81624:	1880      	adds	r0, r0, r2
   81626:	fa43 f305 	asr.w	r3, r3, r5
   8162a:	4159      	adcs	r1, r3
   8162c:	e00e      	b.n	8164c <__adddf3+0xd0>
   8162e:	f1a5 0520 	sub.w	r5, r5, #32
   81632:	f10e 0e20 	add.w	lr, lr, #32
   81636:	2a01      	cmp	r2, #1
   81638:	fa03 fc0e 	lsl.w	ip, r3, lr
   8163c:	bf28      	it	cs
   8163e:	f04c 0c02 	orrcs.w	ip, ip, #2
   81642:	fa43 f305 	asr.w	r3, r3, r5
   81646:	18c0      	adds	r0, r0, r3
   81648:	eb51 71e3 	adcs.w	r1, r1, r3, asr #31
   8164c:	f001 4500 	and.w	r5, r1, #2147483648	; 0x80000000
   81650:	d507      	bpl.n	81662 <__adddf3+0xe6>
   81652:	f04f 0e00 	mov.w	lr, #0
   81656:	f1dc 0c00 	rsbs	ip, ip, #0
   8165a:	eb7e 0000 	sbcs.w	r0, lr, r0
   8165e:	eb6e 0101 	sbc.w	r1, lr, r1
   81662:	f5b1 1f80 	cmp.w	r1, #1048576	; 0x100000
   81666:	d31b      	bcc.n	816a0 <__adddf3+0x124>
   81668:	f5b1 1f00 	cmp.w	r1, #2097152	; 0x200000
   8166c:	d30c      	bcc.n	81688 <__adddf3+0x10c>
   8166e:	0849      	lsrs	r1, r1, #1
   81670:	ea5f 0030 	movs.w	r0, r0, rrx
   81674:	ea4f 0c3c 	mov.w	ip, ip, rrx
   81678:	f104 0401 	add.w	r4, r4, #1
   8167c:	ea4f 5244 	mov.w	r2, r4, lsl #21
   81680:	f512 0f80 	cmn.w	r2, #4194304	; 0x400000
   81684:	f080 809a 	bcs.w	817bc <__adddf3+0x240>
   81688:	f1bc 4f00 	cmp.w	ip, #2147483648	; 0x80000000
   8168c:	bf08      	it	eq
   8168e:	ea5f 0c50 	movseq.w	ip, r0, lsr #1
   81692:	f150 0000 	adcs.w	r0, r0, #0
   81696:	eb41 5104 	adc.w	r1, r1, r4, lsl #20
   8169a:	ea41 0105 	orr.w	r1, r1, r5
   8169e:	bd30      	pop	{r4, r5, pc}
   816a0:	ea5f 0c4c 	movs.w	ip, ip, lsl #1
   816a4:	4140      	adcs	r0, r0
   816a6:	eb41 0101 	adc.w	r1, r1, r1
   816aa:	f411 1f80 	tst.w	r1, #1048576	; 0x100000
   816ae:	f1a4 0401 	sub.w	r4, r4, #1
   816b2:	d1e9      	bne.n	81688 <__adddf3+0x10c>
   816b4:	f091 0f00 	teq	r1, #0
   816b8:	bf04      	itt	eq
   816ba:	4601      	moveq	r1, r0
   816bc:	2000      	moveq	r0, #0
   816be:	fab1 f381 	clz	r3, r1
   816c2:	bf08      	it	eq
   816c4:	3320      	addeq	r3, #32
   816c6:	f1a3 030b 	sub.w	r3, r3, #11
   816ca:	f1b3 0220 	subs.w	r2, r3, #32
   816ce:	da0c      	bge.n	816ea <__adddf3+0x16e>
   816d0:	320c      	adds	r2, #12
   816d2:	dd08      	ble.n	816e6 <__adddf3+0x16a>
   816d4:	f102 0c14 	add.w	ip, r2, #20
   816d8:	f1c2 020c 	rsb	r2, r2, #12
   816dc:	fa01 f00c 	lsl.w	r0, r1, ip
   816e0:	fa21 f102 	lsr.w	r1, r1, r2
   816e4:	e00c      	b.n	81700 <__adddf3+0x184>
   816e6:	f102 0214 	add.w	r2, r2, #20
   816ea:	bfd8      	it	le
   816ec:	f1c2 0c20 	rsble	ip, r2, #32
   816f0:	fa01 f102 	lsl.w	r1, r1, r2
   816f4:	fa20 fc0c 	lsr.w	ip, r0, ip
   816f8:	bfdc      	itt	le
   816fa:	ea41 010c 	orrle.w	r1, r1, ip
   816fe:	4090      	lslle	r0, r2
   81700:	1ae4      	subs	r4, r4, r3
   81702:	bfa2      	ittt	ge
   81704:	eb01 5104 	addge.w	r1, r1, r4, lsl #20
   81708:	4329      	orrge	r1, r5
   8170a:	bd30      	popge	{r4, r5, pc}
   8170c:	ea6f 0404 	mvn.w	r4, r4
   81710:	3c1f      	subs	r4, #31
   81712:	da1c      	bge.n	8174e <__adddf3+0x1d2>
   81714:	340c      	adds	r4, #12
   81716:	dc0e      	bgt.n	81736 <__adddf3+0x1ba>
   81718:	f104 0414 	add.w	r4, r4, #20
   8171c:	f1c4 0220 	rsb	r2, r4, #32
   81720:	fa20 f004 	lsr.w	r0, r0, r4
   81724:	fa01 f302 	lsl.w	r3, r1, r2
   81728:	ea40 0003 	orr.w	r0, r0, r3
   8172c:	fa21 f304 	lsr.w	r3, r1, r4
   81730:	ea45 0103 	orr.w	r1, r5, r3
   81734:	bd30      	pop	{r4, r5, pc}
   81736:	f1c4 040c 	rsb	r4, r4, #12
   8173a:	f1c4 0220 	rsb	r2, r4, #32
   8173e:	fa20 f002 	lsr.w	r0, r0, r2
   81742:	fa01 f304 	lsl.w	r3, r1, r4
   81746:	ea40 0003 	orr.w	r0, r0, r3
   8174a:	4629      	mov	r1, r5
   8174c:	bd30      	pop	{r4, r5, pc}
   8174e:	fa21 f004 	lsr.w	r0, r1, r4
   81752:	4629      	mov	r1, r5
   81754:	bd30      	pop	{r4, r5, pc}
   81756:	f094 0f00 	teq	r4, #0
   8175a:	f483 1380 	eor.w	r3, r3, #1048576	; 0x100000
   8175e:	bf06      	itte	eq
   81760:	f481 1180 	eoreq.w	r1, r1, #1048576	; 0x100000
   81764:	3401      	addeq	r4, #1
   81766:	3d01      	subne	r5, #1
   81768:	e74e      	b.n	81608 <__adddf3+0x8c>
   8176a:	ea7f 5c64 	mvns.w	ip, r4, asr #21
   8176e:	bf18      	it	ne
   81770:	ea7f 5c65 	mvnsne.w	ip, r5, asr #21
   81774:	d029      	beq.n	817ca <__adddf3+0x24e>
   81776:	ea94 0f05 	teq	r4, r5
   8177a:	bf08      	it	eq
   8177c:	ea90 0f02 	teqeq	r0, r2
   81780:	d005      	beq.n	8178e <__adddf3+0x212>
   81782:	ea54 0c00 	orrs.w	ip, r4, r0
   81786:	bf04      	itt	eq
   81788:	4619      	moveq	r1, r3
   8178a:	4610      	moveq	r0, r2
   8178c:	bd30      	pop	{r4, r5, pc}
   8178e:	ea91 0f03 	teq	r1, r3
   81792:	bf1e      	ittt	ne
   81794:	2100      	movne	r1, #0
   81796:	2000      	movne	r0, #0
   81798:	bd30      	popne	{r4, r5, pc}
   8179a:	ea5f 5c54 	movs.w	ip, r4, lsr #21
   8179e:	d105      	bne.n	817ac <__adddf3+0x230>
   817a0:	0040      	lsls	r0, r0, #1
   817a2:	4149      	adcs	r1, r1
   817a4:	bf28      	it	cs
   817a6:	f041 4100 	orrcs.w	r1, r1, #2147483648	; 0x80000000
   817aa:	bd30      	pop	{r4, r5, pc}
   817ac:	f514 0480 	adds.w	r4, r4, #4194304	; 0x400000
   817b0:	bf3c      	itt	cc
   817b2:	f501 1180 	addcc.w	r1, r1, #1048576	; 0x100000
   817b6:	bd30      	popcc	{r4, r5, pc}
   817b8:	f001 4500 	and.w	r5, r1, #2147483648	; 0x80000000
   817bc:	f045 41fe 	orr.w	r1, r5, #2130706432	; 0x7f000000
   817c0:	f441 0170 	orr.w	r1, r1, #15728640	; 0xf00000
   817c4:	f04f 0000 	mov.w	r0, #0
   817c8:	bd30      	pop	{r4, r5, pc}
   817ca:	ea7f 5c64 	mvns.w	ip, r4, asr #21
   817ce:	bf1a      	itte	ne
   817d0:	4619      	movne	r1, r3
   817d2:	4610      	movne	r0, r2
   817d4:	ea7f 5c65 	mvnseq.w	ip, r5, asr #21
   817d8:	bf1c      	itt	ne
   817da:	460b      	movne	r3, r1
   817dc:	4602      	movne	r2, r0
   817de:	ea50 3401 	orrs.w	r4, r0, r1, lsl #12
   817e2:	bf06      	itte	eq
   817e4:	ea52 3503 	orrseq.w	r5, r2, r3, lsl #12
   817e8:	ea91 0f03 	teqeq	r1, r3
   817ec:	f441 2100 	orrne.w	r1, r1, #524288	; 0x80000
   817f0:	bd30      	pop	{r4, r5, pc}
   817f2:	bf00      	nop

000817f4 <__aeabi_ui2d>:
   817f4:	f090 0f00 	teq	r0, #0
   817f8:	bf04      	itt	eq
   817fa:	2100      	moveq	r1, #0
   817fc:	4770      	bxeq	lr
   817fe:	b530      	push	{r4, r5, lr}
   81800:	f44f 6480 	mov.w	r4, #1024	; 0x400
   81804:	f104 0432 	add.w	r4, r4, #50	; 0x32
   81808:	f04f 0500 	mov.w	r5, #0
   8180c:	f04f 0100 	mov.w	r1, #0
   81810:	e750      	b.n	816b4 <__adddf3+0x138>
   81812:	bf00      	nop

00081814 <__aeabi_i2d>:
   81814:	f090 0f00 	teq	r0, #0
   81818:	bf04      	itt	eq
   8181a:	2100      	moveq	r1, #0
   8181c:	4770      	bxeq	lr
   8181e:	b530      	push	{r4, r5, lr}
   81820:	f44f 6480 	mov.w	r4, #1024	; 0x400
   81824:	f104 0432 	add.w	r4, r4, #50	; 0x32
   81828:	f010 4500 	ands.w	r5, r0, #2147483648	; 0x80000000
   8182c:	bf48      	it	mi
   8182e:	4240      	negmi	r0, r0
   81830:	f04f 0100 	mov.w	r1, #0
   81834:	e73e      	b.n	816b4 <__adddf3+0x138>
   81836:	bf00      	nop

00081838 <__aeabi_f2d>:
   81838:	0042      	lsls	r2, r0, #1
   8183a:	ea4f 01e2 	mov.w	r1, r2, asr #3
   8183e:	ea4f 0131 	mov.w	r1, r1, rrx
   81842:	ea4f 7002 	mov.w	r0, r2, lsl #28
   81846:	bf1f      	itttt	ne
   81848:	f012 437f 	andsne.w	r3, r2, #4278190080	; 0xff000000
   8184c:	f093 4f7f 	teqne	r3, #4278190080	; 0xff000000
   81850:	f081 5160 	eorne.w	r1, r1, #939524096	; 0x38000000
   81854:	4770      	bxne	lr
   81856:	f092 0f00 	teq	r2, #0
   8185a:	bf14      	ite	ne
   8185c:	f093 4f7f 	teqne	r3, #4278190080	; 0xff000000
   81860:	4770      	bxeq	lr
   81862:	b530      	push	{r4, r5, lr}
   81864:	f44f 7460 	mov.w	r4, #896	; 0x380
   81868:	f001 4500 	and.w	r5, r1, #2147483648	; 0x80000000
   8186c:	f021 4100 	bic.w	r1, r1, #2147483648	; 0x80000000
   81870:	e720      	b.n	816b4 <__adddf3+0x138>
   81872:	bf00      	nop

00081874 <__aeabi_ul2d>:
   81874:	ea50 0201 	orrs.w	r2, r0, r1
   81878:	bf08      	it	eq
   8187a:	4770      	bxeq	lr
   8187c:	b530      	push	{r4, r5, lr}
   8187e:	f04f 0500 	mov.w	r5, #0
   81882:	e00a      	b.n	8189a <__aeabi_l2d+0x16>

00081884 <__aeabi_l2d>:
   81884:	ea50 0201 	orrs.w	r2, r0, r1
   81888:	bf08      	it	eq
   8188a:	4770      	bxeq	lr
   8188c:	b530      	push	{r4, r5, lr}
   8188e:	f011 4500 	ands.w	r5, r1, #2147483648	; 0x80000000
   81892:	d502      	bpl.n	8189a <__aeabi_l2d+0x16>
   81894:	4240      	negs	r0, r0
   81896:	eb61 0141 	sbc.w	r1, r1, r1, lsl #1
   8189a:	f44f 6480 	mov.w	r4, #1024	; 0x400
   8189e:	f104 0432 	add.w	r4, r4, #50	; 0x32
   818a2:	ea5f 5c91 	movs.w	ip, r1, lsr #22
   818a6:	f43f aedc 	beq.w	81662 <__adddf3+0xe6>
   818aa:	f04f 0203 	mov.w	r2, #3
   818ae:	ea5f 0cdc 	movs.w	ip, ip, lsr #3
   818b2:	bf18      	it	ne
   818b4:	3203      	addne	r2, #3
   818b6:	ea5f 0cdc 	movs.w	ip, ip, lsr #3
   818ba:	bf18      	it	ne
   818bc:	3203      	addne	r2, #3
   818be:	eb02 02dc 	add.w	r2, r2, ip, lsr #3
   818c2:	f1c2 0320 	rsb	r3, r2, #32
   818c6:	fa00 fc03 	lsl.w	ip, r0, r3
   818ca:	fa20 f002 	lsr.w	r0, r0, r2
   818ce:	fa01 fe03 	lsl.w	lr, r1, r3
   818d2:	ea40 000e 	orr.w	r0, r0, lr
   818d6:	fa21 f102 	lsr.w	r1, r1, r2
   818da:	4414      	add	r4, r2
   818dc:	e6c1      	b.n	81662 <__adddf3+0xe6>
   818de:	bf00      	nop

000818e0 <__aeabi_dmul>:
   818e0:	b570      	push	{r4, r5, r6, lr}
   818e2:	f04f 0cff 	mov.w	ip, #255	; 0xff
   818e6:	f44c 6ce0 	orr.w	ip, ip, #1792	; 0x700
   818ea:	ea1c 5411 	ands.w	r4, ip, r1, lsr #20
   818ee:	bf1d      	ittte	ne
   818f0:	ea1c 5513 	andsne.w	r5, ip, r3, lsr #20
   818f4:	ea94 0f0c 	teqne	r4, ip
   818f8:	ea95 0f0c 	teqne	r5, ip
   818fc:	f000 f8de 	bleq	81abc <__aeabi_dmul+0x1dc>
   81900:	442c      	add	r4, r5
   81902:	ea81 0603 	eor.w	r6, r1, r3
   81906:	ea21 514c 	bic.w	r1, r1, ip, lsl #21
   8190a:	ea23 534c 	bic.w	r3, r3, ip, lsl #21
   8190e:	ea50 3501 	orrs.w	r5, r0, r1, lsl #12
   81912:	bf18      	it	ne
   81914:	ea52 3503 	orrsne.w	r5, r2, r3, lsl #12
   81918:	f441 1180 	orr.w	r1, r1, #1048576	; 0x100000
   8191c:	f443 1380 	orr.w	r3, r3, #1048576	; 0x100000
   81920:	d038      	beq.n	81994 <__aeabi_dmul+0xb4>
   81922:	fba0 ce02 	umull	ip, lr, r0, r2
   81926:	f04f 0500 	mov.w	r5, #0
   8192a:	fbe1 e502 	umlal	lr, r5, r1, r2
   8192e:	f006 4200 	and.w	r2, r6, #2147483648	; 0x80000000
   81932:	fbe0 e503 	umlal	lr, r5, r0, r3
   81936:	f04f 0600 	mov.w	r6, #0
   8193a:	fbe1 5603 	umlal	r5, r6, r1, r3
   8193e:	f09c 0f00 	teq	ip, #0
   81942:	bf18      	it	ne
   81944:	f04e 0e01 	orrne.w	lr, lr, #1
   81948:	f1a4 04ff 	sub.w	r4, r4, #255	; 0xff
   8194c:	f5b6 7f00 	cmp.w	r6, #512	; 0x200
   81950:	f564 7440 	sbc.w	r4, r4, #768	; 0x300
   81954:	d204      	bcs.n	81960 <__aeabi_dmul+0x80>
   81956:	ea5f 0e4e 	movs.w	lr, lr, lsl #1
   8195a:	416d      	adcs	r5, r5
   8195c:	eb46 0606 	adc.w	r6, r6, r6
   81960:	ea42 21c6 	orr.w	r1, r2, r6, lsl #11
   81964:	ea41 5155 	orr.w	r1, r1, r5, lsr #21
   81968:	ea4f 20c5 	mov.w	r0, r5, lsl #11
   8196c:	ea40 505e 	orr.w	r0, r0, lr, lsr #21
   81970:	ea4f 2ece 	mov.w	lr, lr, lsl #11
   81974:	f1b4 0cfd 	subs.w	ip, r4, #253	; 0xfd
   81978:	bf88      	it	hi
   8197a:	f5bc 6fe0 	cmphi.w	ip, #1792	; 0x700
   8197e:	d81e      	bhi.n	819be <__aeabi_dmul+0xde>
   81980:	f1be 4f00 	cmp.w	lr, #2147483648	; 0x80000000
   81984:	bf08      	it	eq
   81986:	ea5f 0e50 	movseq.w	lr, r0, lsr #1
   8198a:	f150 0000 	adcs.w	r0, r0, #0
   8198e:	eb41 5104 	adc.w	r1, r1, r4, lsl #20
   81992:	bd70      	pop	{r4, r5, r6, pc}
   81994:	f006 4600 	and.w	r6, r6, #2147483648	; 0x80000000
   81998:	ea46 0101 	orr.w	r1, r6, r1
   8199c:	ea40 0002 	orr.w	r0, r0, r2
   819a0:	ea81 0103 	eor.w	r1, r1, r3
   819a4:	ebb4 045c 	subs.w	r4, r4, ip, lsr #1
   819a8:	bfc2      	ittt	gt
   819aa:	ebd4 050c 	rsbsgt	r5, r4, ip
   819ae:	ea41 5104 	orrgt.w	r1, r1, r4, lsl #20
   819b2:	bd70      	popgt	{r4, r5, r6, pc}
   819b4:	f441 1180 	orr.w	r1, r1, #1048576	; 0x100000
   819b8:	f04f 0e00 	mov.w	lr, #0
   819bc:	3c01      	subs	r4, #1
   819be:	f300 80ab 	bgt.w	81b18 <__aeabi_dmul+0x238>
   819c2:	f114 0f36 	cmn.w	r4, #54	; 0x36
   819c6:	bfde      	ittt	le
   819c8:	2000      	movle	r0, #0
   819ca:	f001 4100 	andle.w	r1, r1, #2147483648	; 0x80000000
   819ce:	bd70      	pople	{r4, r5, r6, pc}
   819d0:	f1c4 0400 	rsb	r4, r4, #0
   819d4:	3c20      	subs	r4, #32
   819d6:	da35      	bge.n	81a44 <__aeabi_dmul+0x164>
   819d8:	340c      	adds	r4, #12
   819da:	dc1b      	bgt.n	81a14 <__aeabi_dmul+0x134>
   819dc:	f104 0414 	add.w	r4, r4, #20
   819e0:	f1c4 0520 	rsb	r5, r4, #32
   819e4:	fa00 f305 	lsl.w	r3, r0, r5
   819e8:	fa20 f004 	lsr.w	r0, r0, r4
   819ec:	fa01 f205 	lsl.w	r2, r1, r5
   819f0:	ea40 0002 	orr.w	r0, r0, r2
   819f4:	f001 4200 	and.w	r2, r1, #2147483648	; 0x80000000
   819f8:	f021 4100 	bic.w	r1, r1, #2147483648	; 0x80000000
   819fc:	eb10 70d3 	adds.w	r0, r0, r3, lsr #31
   81a00:	fa21 f604 	lsr.w	r6, r1, r4
   81a04:	eb42 0106 	adc.w	r1, r2, r6
   81a08:	ea5e 0e43 	orrs.w	lr, lr, r3, lsl #1
   81a0c:	bf08      	it	eq
   81a0e:	ea20 70d3 	biceq.w	r0, r0, r3, lsr #31
   81a12:	bd70      	pop	{r4, r5, r6, pc}
   81a14:	f1c4 040c 	rsb	r4, r4, #12
   81a18:	f1c4 0520 	rsb	r5, r4, #32
   81a1c:	fa00 f304 	lsl.w	r3, r0, r4
   81a20:	fa20 f005 	lsr.w	r0, r0, r5
   81a24:	fa01 f204 	lsl.w	r2, r1, r4
   81a28:	ea40 0002 	orr.w	r0, r0, r2
   81a2c:	f001 4100 	and.w	r1, r1, #2147483648	; 0x80000000
   81a30:	eb10 70d3 	adds.w	r0, r0, r3, lsr #31
   81a34:	f141 0100 	adc.w	r1, r1, #0
   81a38:	ea5e 0e43 	orrs.w	lr, lr, r3, lsl #1
   81a3c:	bf08      	it	eq
   81a3e:	ea20 70d3 	biceq.w	r0, r0, r3, lsr #31
   81a42:	bd70      	pop	{r4, r5, r6, pc}
   81a44:	f1c4 0520 	rsb	r5, r4, #32
   81a48:	fa00 f205 	lsl.w	r2, r0, r5
   81a4c:	ea4e 0e02 	orr.w	lr, lr, r2
   81a50:	fa20 f304 	lsr.w	r3, r0, r4
   81a54:	fa01 f205 	lsl.w	r2, r1, r5
   81a58:	ea43 0302 	orr.w	r3, r3, r2
   81a5c:	fa21 f004 	lsr.w	r0, r1, r4
   81a60:	f001 4100 	and.w	r1, r1, #2147483648	; 0x80000000
   81a64:	fa21 f204 	lsr.w	r2, r1, r4
   81a68:	ea20 0002 	bic.w	r0, r0, r2
   81a6c:	eb00 70d3 	add.w	r0, r0, r3, lsr #31
   81a70:	ea5e 0e43 	orrs.w	lr, lr, r3, lsl #1
   81a74:	bf08      	it	eq
   81a76:	ea20 70d3 	biceq.w	r0, r0, r3, lsr #31
   81a7a:	bd70      	pop	{r4, r5, r6, pc}
   81a7c:	f094 0f00 	teq	r4, #0
   81a80:	d10f      	bne.n	81aa2 <__aeabi_dmul+0x1c2>
   81a82:	f001 4600 	and.w	r6, r1, #2147483648	; 0x80000000
   81a86:	0040      	lsls	r0, r0, #1
   81a88:	eb41 0101 	adc.w	r1, r1, r1
   81a8c:	f411 1f80 	tst.w	r1, #1048576	; 0x100000
   81a90:	bf08      	it	eq
   81a92:	3c01      	subeq	r4, #1
   81a94:	d0f7      	beq.n	81a86 <__aeabi_dmul+0x1a6>
   81a96:	ea41 0106 	orr.w	r1, r1, r6
   81a9a:	f095 0f00 	teq	r5, #0
   81a9e:	bf18      	it	ne
   81aa0:	4770      	bxne	lr
   81aa2:	f003 4600 	and.w	r6, r3, #2147483648	; 0x80000000
   81aa6:	0052      	lsls	r2, r2, #1
   81aa8:	eb43 0303 	adc.w	r3, r3, r3
   81aac:	f413 1f80 	tst.w	r3, #1048576	; 0x100000
   81ab0:	bf08      	it	eq
   81ab2:	3d01      	subeq	r5, #1
   81ab4:	d0f7      	beq.n	81aa6 <__aeabi_dmul+0x1c6>
   81ab6:	ea43 0306 	orr.w	r3, r3, r6
   81aba:	4770      	bx	lr
   81abc:	ea94 0f0c 	teq	r4, ip
   81ac0:	ea0c 5513 	and.w	r5, ip, r3, lsr #20
   81ac4:	bf18      	it	ne
   81ac6:	ea95 0f0c 	teqne	r5, ip
   81aca:	d00c      	beq.n	81ae6 <__aeabi_dmul+0x206>
   81acc:	ea50 0641 	orrs.w	r6, r0, r1, lsl #1
   81ad0:	bf18      	it	ne
   81ad2:	ea52 0643 	orrsne.w	r6, r2, r3, lsl #1
   81ad6:	d1d1      	bne.n	81a7c <__aeabi_dmul+0x19c>
   81ad8:	ea81 0103 	eor.w	r1, r1, r3
   81adc:	f001 4100 	and.w	r1, r1, #2147483648	; 0x80000000
   81ae0:	f04f 0000 	mov.w	r0, #0
   81ae4:	bd70      	pop	{r4, r5, r6, pc}
   81ae6:	ea50 0641 	orrs.w	r6, r0, r1, lsl #1
   81aea:	bf06      	itte	eq
   81aec:	4610      	moveq	r0, r2
   81aee:	4619      	moveq	r1, r3
   81af0:	ea52 0643 	orrsne.w	r6, r2, r3, lsl #1
   81af4:	d019      	beq.n	81b2a <__aeabi_dmul+0x24a>
   81af6:	ea94 0f0c 	teq	r4, ip
   81afa:	d102      	bne.n	81b02 <__aeabi_dmul+0x222>
   81afc:	ea50 3601 	orrs.w	r6, r0, r1, lsl #12
   81b00:	d113      	bne.n	81b2a <__aeabi_dmul+0x24a>
   81b02:	ea95 0f0c 	teq	r5, ip
   81b06:	d105      	bne.n	81b14 <__aeabi_dmul+0x234>
   81b08:	ea52 3603 	orrs.w	r6, r2, r3, lsl #12
   81b0c:	bf1c      	itt	ne
   81b0e:	4610      	movne	r0, r2
   81b10:	4619      	movne	r1, r3
   81b12:	d10a      	bne.n	81b2a <__aeabi_dmul+0x24a>
   81b14:	ea81 0103 	eor.w	r1, r1, r3
   81b18:	f001 4100 	and.w	r1, r1, #2147483648	; 0x80000000
   81b1c:	f041 41fe 	orr.w	r1, r1, #2130706432	; 0x7f000000
   81b20:	f441 0170 	orr.w	r1, r1, #15728640	; 0xf00000
   81b24:	f04f 0000 	mov.w	r0, #0
   81b28:	bd70      	pop	{r4, r5, r6, pc}
   81b2a:	f041 41fe 	orr.w	r1, r1, #2130706432	; 0x7f000000
   81b2e:	f441 0178 	orr.w	r1, r1, #16252928	; 0xf80000
   81b32:	bd70      	pop	{r4, r5, r6, pc}

00081b34 <__aeabi_ddiv>:
   81b34:	b570      	push	{r4, r5, r6, lr}
   81b36:	f04f 0cff 	mov.w	ip, #255	; 0xff
   81b3a:	f44c 6ce0 	orr.w	ip, ip, #1792	; 0x700
   81b3e:	ea1c 5411 	ands.w	r4, ip, r1, lsr #20
   81b42:	bf1d      	ittte	ne
   81b44:	ea1c 5513 	andsne.w	r5, ip, r3, lsr #20
   81b48:	ea94 0f0c 	teqne	r4, ip
   81b4c:	ea95 0f0c 	teqne	r5, ip
   81b50:	f000 f8a7 	bleq	81ca2 <__aeabi_ddiv+0x16e>
   81b54:	eba4 0405 	sub.w	r4, r4, r5
   81b58:	ea81 0e03 	eor.w	lr, r1, r3
   81b5c:	ea52 3503 	orrs.w	r5, r2, r3, lsl #12
   81b60:	ea4f 3101 	mov.w	r1, r1, lsl #12
   81b64:	f000 8088 	beq.w	81c78 <__aeabi_ddiv+0x144>
   81b68:	ea4f 3303 	mov.w	r3, r3, lsl #12
   81b6c:	f04f 5580 	mov.w	r5, #268435456	; 0x10000000
   81b70:	ea45 1313 	orr.w	r3, r5, r3, lsr #4
   81b74:	ea43 6312 	orr.w	r3, r3, r2, lsr #24
   81b78:	ea4f 2202 	mov.w	r2, r2, lsl #8
   81b7c:	ea45 1511 	orr.w	r5, r5, r1, lsr #4
   81b80:	ea45 6510 	orr.w	r5, r5, r0, lsr #24
   81b84:	ea4f 2600 	mov.w	r6, r0, lsl #8
   81b88:	f00e 4100 	and.w	r1, lr, #2147483648	; 0x80000000
   81b8c:	429d      	cmp	r5, r3
   81b8e:	bf08      	it	eq
   81b90:	4296      	cmpeq	r6, r2
   81b92:	f144 04fd 	adc.w	r4, r4, #253	; 0xfd
   81b96:	f504 7440 	add.w	r4, r4, #768	; 0x300
   81b9a:	d202      	bcs.n	81ba2 <__aeabi_ddiv+0x6e>
   81b9c:	085b      	lsrs	r3, r3, #1
   81b9e:	ea4f 0232 	mov.w	r2, r2, rrx
   81ba2:	1ab6      	subs	r6, r6, r2
   81ba4:	eb65 0503 	sbc.w	r5, r5, r3
   81ba8:	085b      	lsrs	r3, r3, #1
   81baa:	ea4f 0232 	mov.w	r2, r2, rrx
   81bae:	f44f 1080 	mov.w	r0, #1048576	; 0x100000
   81bb2:	f44f 2c00 	mov.w	ip, #524288	; 0x80000
   81bb6:	ebb6 0e02 	subs.w	lr, r6, r2
   81bba:	eb75 0e03 	sbcs.w	lr, r5, r3
   81bbe:	bf22      	ittt	cs
   81bc0:	1ab6      	subcs	r6, r6, r2
   81bc2:	4675      	movcs	r5, lr
   81bc4:	ea40 000c 	orrcs.w	r0, r0, ip
   81bc8:	085b      	lsrs	r3, r3, #1
   81bca:	ea4f 0232 	mov.w	r2, r2, rrx
   81bce:	ebb6 0e02 	subs.w	lr, r6, r2
   81bd2:	eb75 0e03 	sbcs.w	lr, r5, r3
   81bd6:	bf22      	ittt	cs
   81bd8:	1ab6      	subcs	r6, r6, r2
   81bda:	4675      	movcs	r5, lr
   81bdc:	ea40 005c 	orrcs.w	r0, r0, ip, lsr #1
   81be0:	085b      	lsrs	r3, r3, #1
   81be2:	ea4f 0232 	mov.w	r2, r2, rrx
   81be6:	ebb6 0e02 	subs.w	lr, r6, r2
   81bea:	eb75 0e03 	sbcs.w	lr, r5, r3
   81bee:	bf22      	ittt	cs
   81bf0:	1ab6      	subcs	r6, r6, r2
   81bf2:	4675      	movcs	r5, lr
   81bf4:	ea40 009c 	orrcs.w	r0, r0, ip, lsr #2
   81bf8:	085b      	lsrs	r3, r3, #1
   81bfa:	ea4f 0232 	mov.w	r2, r2, rrx
   81bfe:	ebb6 0e02 	subs.w	lr, r6, r2
   81c02:	eb75 0e03 	sbcs.w	lr, r5, r3
   81c06:	bf22      	ittt	cs
   81c08:	1ab6      	subcs	r6, r6, r2
   81c0a:	4675      	movcs	r5, lr
   81c0c:	ea40 00dc 	orrcs.w	r0, r0, ip, lsr #3
   81c10:	ea55 0e06 	orrs.w	lr, r5, r6
   81c14:	d018      	beq.n	81c48 <__aeabi_ddiv+0x114>
   81c16:	ea4f 1505 	mov.w	r5, r5, lsl #4
   81c1a:	ea45 7516 	orr.w	r5, r5, r6, lsr #28
   81c1e:	ea4f 1606 	mov.w	r6, r6, lsl #4
   81c22:	ea4f 03c3 	mov.w	r3, r3, lsl #3
   81c26:	ea43 7352 	orr.w	r3, r3, r2, lsr #29
   81c2a:	ea4f 02c2 	mov.w	r2, r2, lsl #3
   81c2e:	ea5f 1c1c 	movs.w	ip, ip, lsr #4
   81c32:	d1c0      	bne.n	81bb6 <__aeabi_ddiv+0x82>
   81c34:	f411 1f80 	tst.w	r1, #1048576	; 0x100000
   81c38:	d10b      	bne.n	81c52 <__aeabi_ddiv+0x11e>
   81c3a:	ea41 0100 	orr.w	r1, r1, r0
   81c3e:	f04f 0000 	mov.w	r0, #0
   81c42:	f04f 4c00 	mov.w	ip, #2147483648	; 0x80000000
   81c46:	e7b6      	b.n	81bb6 <__aeabi_ddiv+0x82>
   81c48:	f411 1f80 	tst.w	r1, #1048576	; 0x100000
   81c4c:	bf04      	itt	eq
   81c4e:	4301      	orreq	r1, r0
   81c50:	2000      	moveq	r0, #0
   81c52:	f1b4 0cfd 	subs.w	ip, r4, #253	; 0xfd
   81c56:	bf88      	it	hi
   81c58:	f5bc 6fe0 	cmphi.w	ip, #1792	; 0x700
   81c5c:	f63f aeaf 	bhi.w	819be <__aeabi_dmul+0xde>
   81c60:	ebb5 0c03 	subs.w	ip, r5, r3
   81c64:	bf04      	itt	eq
   81c66:	ebb6 0c02 	subseq.w	ip, r6, r2
   81c6a:	ea5f 0c50 	movseq.w	ip, r0, lsr #1
   81c6e:	f150 0000 	adcs.w	r0, r0, #0
   81c72:	eb41 5104 	adc.w	r1, r1, r4, lsl #20
   81c76:	bd70      	pop	{r4, r5, r6, pc}
   81c78:	f00e 4e00 	and.w	lr, lr, #2147483648	; 0x80000000
   81c7c:	ea4e 3111 	orr.w	r1, lr, r1, lsr #12
   81c80:	eb14 045c 	adds.w	r4, r4, ip, lsr #1
   81c84:	bfc2      	ittt	gt
   81c86:	ebd4 050c 	rsbsgt	r5, r4, ip
   81c8a:	ea41 5104 	orrgt.w	r1, r1, r4, lsl #20
   81c8e:	bd70      	popgt	{r4, r5, r6, pc}
   81c90:	f441 1180 	orr.w	r1, r1, #1048576	; 0x100000
   81c94:	f04f 0e00 	mov.w	lr, #0
   81c98:	3c01      	subs	r4, #1
   81c9a:	e690      	b.n	819be <__aeabi_dmul+0xde>
   81c9c:	ea45 0e06 	orr.w	lr, r5, r6
   81ca0:	e68d      	b.n	819be <__aeabi_dmul+0xde>
   81ca2:	ea0c 5513 	and.w	r5, ip, r3, lsr #20
   81ca6:	ea94 0f0c 	teq	r4, ip
   81caa:	bf08      	it	eq
   81cac:	ea95 0f0c 	teqeq	r5, ip
   81cb0:	f43f af3b 	beq.w	81b2a <__aeabi_dmul+0x24a>
   81cb4:	ea94 0f0c 	teq	r4, ip
   81cb8:	d10a      	bne.n	81cd0 <__aeabi_ddiv+0x19c>
   81cba:	ea50 3401 	orrs.w	r4, r0, r1, lsl #12
   81cbe:	f47f af34 	bne.w	81b2a <__aeabi_dmul+0x24a>
   81cc2:	ea95 0f0c 	teq	r5, ip
   81cc6:	f47f af25 	bne.w	81b14 <__aeabi_dmul+0x234>
   81cca:	4610      	mov	r0, r2
   81ccc:	4619      	mov	r1, r3
   81cce:	e72c      	b.n	81b2a <__aeabi_dmul+0x24a>
   81cd0:	ea95 0f0c 	teq	r5, ip
   81cd4:	d106      	bne.n	81ce4 <__aeabi_ddiv+0x1b0>
   81cd6:	ea52 3503 	orrs.w	r5, r2, r3, lsl #12
   81cda:	f43f aefd 	beq.w	81ad8 <__aeabi_dmul+0x1f8>
   81cde:	4610      	mov	r0, r2
   81ce0:	4619      	mov	r1, r3
   81ce2:	e722      	b.n	81b2a <__aeabi_dmul+0x24a>
   81ce4:	ea50 0641 	orrs.w	r6, r0, r1, lsl #1
   81ce8:	bf18      	it	ne
   81cea:	ea52 0643 	orrsne.w	r6, r2, r3, lsl #1
   81cee:	f47f aec5 	bne.w	81a7c <__aeabi_dmul+0x19c>
   81cf2:	ea50 0441 	orrs.w	r4, r0, r1, lsl #1
   81cf6:	f47f af0d 	bne.w	81b14 <__aeabi_dmul+0x234>
   81cfa:	ea52 0543 	orrs.w	r5, r2, r3, lsl #1
   81cfe:	f47f aeeb 	bne.w	81ad8 <__aeabi_dmul+0x1f8>
   81d02:	e712      	b.n	81b2a <__aeabi_dmul+0x24a>

00081d04 <__gedf2>:
   81d04:	f04f 3cff 	mov.w	ip, #4294967295
   81d08:	e006      	b.n	81d18 <__cmpdf2+0x4>
   81d0a:	bf00      	nop

00081d0c <__ledf2>:
   81d0c:	f04f 0c01 	mov.w	ip, #1
   81d10:	e002      	b.n	81d18 <__cmpdf2+0x4>
   81d12:	bf00      	nop

00081d14 <__cmpdf2>:
   81d14:	f04f 0c01 	mov.w	ip, #1
   81d18:	f84d cd04 	str.w	ip, [sp, #-4]!
   81d1c:	ea4f 0c41 	mov.w	ip, r1, lsl #1
   81d20:	ea7f 5c6c 	mvns.w	ip, ip, asr #21
   81d24:	ea4f 0c43 	mov.w	ip, r3, lsl #1
   81d28:	bf18      	it	ne
   81d2a:	ea7f 5c6c 	mvnsne.w	ip, ip, asr #21
   81d2e:	d01b      	beq.n	81d68 <__cmpdf2+0x54>
   81d30:	b001      	add	sp, #4
   81d32:	ea50 0c41 	orrs.w	ip, r0, r1, lsl #1
   81d36:	bf0c      	ite	eq
   81d38:	ea52 0c43 	orrseq.w	ip, r2, r3, lsl #1
   81d3c:	ea91 0f03 	teqne	r1, r3
   81d40:	bf02      	ittt	eq
   81d42:	ea90 0f02 	teqeq	r0, r2
   81d46:	2000      	moveq	r0, #0
   81d48:	4770      	bxeq	lr
   81d4a:	f110 0f00 	cmn.w	r0, #0
   81d4e:	ea91 0f03 	teq	r1, r3
   81d52:	bf58      	it	pl
   81d54:	4299      	cmppl	r1, r3
   81d56:	bf08      	it	eq
   81d58:	4290      	cmpeq	r0, r2
   81d5a:	bf2c      	ite	cs
   81d5c:	17d8      	asrcs	r0, r3, #31
   81d5e:	ea6f 70e3 	mvncc.w	r0, r3, asr #31
   81d62:	f040 0001 	orr.w	r0, r0, #1
   81d66:	4770      	bx	lr
   81d68:	ea4f 0c41 	mov.w	ip, r1, lsl #1
   81d6c:	ea7f 5c6c 	mvns.w	ip, ip, asr #21
   81d70:	d102      	bne.n	81d78 <__cmpdf2+0x64>
   81d72:	ea50 3c01 	orrs.w	ip, r0, r1, lsl #12
   81d76:	d107      	bne.n	81d88 <__cmpdf2+0x74>
   81d78:	ea4f 0c43 	mov.w	ip, r3, lsl #1
   81d7c:	ea7f 5c6c 	mvns.w	ip, ip, asr #21
   81d80:	d1d6      	bne.n	81d30 <__cmpdf2+0x1c>
   81d82:	ea52 3c03 	orrs.w	ip, r2, r3, lsl #12
   81d86:	d0d3      	beq.n	81d30 <__cmpdf2+0x1c>
   81d88:	f85d 0b04 	ldr.w	r0, [sp], #4
   81d8c:	4770      	bx	lr
   81d8e:	bf00      	nop

00081d90 <__aeabi_cdrcmple>:
   81d90:	4684      	mov	ip, r0
   81d92:	4610      	mov	r0, r2
   81d94:	4662      	mov	r2, ip
   81d96:	468c      	mov	ip, r1
   81d98:	4619      	mov	r1, r3
   81d9a:	4663      	mov	r3, ip
   81d9c:	e000      	b.n	81da0 <__aeabi_cdcmpeq>
   81d9e:	bf00      	nop

00081da0 <__aeabi_cdcmpeq>:
   81da0:	b501      	push	{r0, lr}
   81da2:	f7ff ffb7 	bl	81d14 <__cmpdf2>
   81da6:	2800      	cmp	r0, #0
   81da8:	bf48      	it	mi
   81daa:	f110 0f00 	cmnmi.w	r0, #0
   81dae:	bd01      	pop	{r0, pc}

00081db0 <__aeabi_dcmpeq>:
   81db0:	f84d ed08 	str.w	lr, [sp, #-8]!
   81db4:	f7ff fff4 	bl	81da0 <__aeabi_cdcmpeq>
   81db8:	bf0c      	ite	eq
   81dba:	2001      	moveq	r0, #1
   81dbc:	2000      	movne	r0, #0
   81dbe:	f85d fb08 	ldr.w	pc, [sp], #8
   81dc2:	bf00      	nop

00081dc4 <__aeabi_dcmplt>:
   81dc4:	f84d ed08 	str.w	lr, [sp, #-8]!
   81dc8:	f7ff ffea 	bl	81da0 <__aeabi_cdcmpeq>
   81dcc:	bf34      	ite	cc
   81dce:	2001      	movcc	r0, #1
   81dd0:	2000      	movcs	r0, #0
   81dd2:	f85d fb08 	ldr.w	pc, [sp], #8
   81dd6:	bf00      	nop

00081dd8 <__aeabi_dcmple>:
   81dd8:	f84d ed08 	str.w	lr, [sp, #-8]!
   81ddc:	f7ff ffe0 	bl	81da0 <__aeabi_cdcmpeq>
   81de0:	bf94      	ite	ls
   81de2:	2001      	movls	r0, #1
   81de4:	2000      	movhi	r0, #0
   81de6:	f85d fb08 	ldr.w	pc, [sp], #8
   81dea:	bf00      	nop

00081dec <__aeabi_dcmpge>:
   81dec:	f84d ed08 	str.w	lr, [sp, #-8]!
   81df0:	f7ff ffce 	bl	81d90 <__aeabi_cdrcmple>
   81df4:	bf94      	ite	ls
   81df6:	2001      	movls	r0, #1
   81df8:	2000      	movhi	r0, #0
   81dfa:	f85d fb08 	ldr.w	pc, [sp], #8
   81dfe:	bf00      	nop

00081e00 <__aeabi_dcmpgt>:
   81e00:	f84d ed08 	str.w	lr, [sp, #-8]!
   81e04:	f7ff ffc4 	bl	81d90 <__aeabi_cdrcmple>
   81e08:	bf34      	ite	cc
   81e0a:	2001      	movcc	r0, #1
   81e0c:	2000      	movcs	r0, #0
   81e0e:	f85d fb08 	ldr.w	pc, [sp], #8
   81e12:	bf00      	nop

00081e14 <__aeabi_d2iz>:
   81e14:	ea4f 0241 	mov.w	r2, r1, lsl #1
   81e18:	f512 1200 	adds.w	r2, r2, #2097152	; 0x200000
   81e1c:	d215      	bcs.n	81e4a <__aeabi_d2iz+0x36>
   81e1e:	d511      	bpl.n	81e44 <__aeabi_d2iz+0x30>
   81e20:	f46f 7378 	mvn.w	r3, #992	; 0x3e0
   81e24:	ebb3 5262 	subs.w	r2, r3, r2, asr #21
   81e28:	d912      	bls.n	81e50 <__aeabi_d2iz+0x3c>
   81e2a:	ea4f 23c1 	mov.w	r3, r1, lsl #11
   81e2e:	f043 4300 	orr.w	r3, r3, #2147483648	; 0x80000000
   81e32:	ea43 5350 	orr.w	r3, r3, r0, lsr #21
   81e36:	f011 4f00 	tst.w	r1, #2147483648	; 0x80000000
   81e3a:	fa23 f002 	lsr.w	r0, r3, r2
   81e3e:	bf18      	it	ne
   81e40:	4240      	negne	r0, r0
   81e42:	4770      	bx	lr
   81e44:	f04f 0000 	mov.w	r0, #0
   81e48:	4770      	bx	lr
   81e4a:	ea50 3001 	orrs.w	r0, r0, r1, lsl #12
   81e4e:	d105      	bne.n	81e5c <__aeabi_d2iz+0x48>
   81e50:	f011 4000 	ands.w	r0, r1, #2147483648	; 0x80000000
   81e54:	bf08      	it	eq
   81e56:	f06f 4000 	mvneq.w	r0, #2147483648	; 0x80000000
   81e5a:	4770      	bx	lr
   81e5c:	f04f 0000 	mov.w	r0, #0
   81e60:	4770      	bx	lr
   81e62:	bf00      	nop

00081e64 <abort>:
   81e64:	b508      	push	{r3, lr}
   81e66:	2006      	movs	r0, #6
   81e68:	f000 f862 	bl	81f30 <raise>
   81e6c:	2001      	movs	r0, #1
   81e6e:	f000 f88b 	bl	81f88 <_exit>
	...

00081e74 <__errno>:
   81e74:	4b01      	ldr	r3, [pc, #4]	; (81e7c <__errno+0x8>)
   81e76:	6818      	ldr	r0, [r3, #0]
   81e78:	4770      	bx	lr
   81e7a:	bf00      	nop
   81e7c:	20000068 	.word	0x20000068

00081e80 <__libc_init_array>:
   81e80:	b570      	push	{r4, r5, r6, lr}
   81e82:	4b0e      	ldr	r3, [pc, #56]	; (81ebc <__libc_init_array+0x3c>)
   81e84:	4d0e      	ldr	r5, [pc, #56]	; (81ec0 <__libc_init_array+0x40>)
   81e86:	2400      	movs	r4, #0
   81e88:	1aed      	subs	r5, r5, r3
   81e8a:	10ad      	asrs	r5, r5, #2
   81e8c:	461e      	mov	r6, r3
   81e8e:	42ac      	cmp	r4, r5
   81e90:	d004      	beq.n	81e9c <__libc_init_array+0x1c>
   81e92:	f856 2024 	ldr.w	r2, [r6, r4, lsl #2]
   81e96:	4790      	blx	r2
   81e98:	3401      	adds	r4, #1
   81e9a:	e7f8      	b.n	81e8e <__libc_init_array+0xe>
   81e9c:	f000 fa4e 	bl	8233c <_init>
   81ea0:	4d08      	ldr	r5, [pc, #32]	; (81ec4 <__libc_init_array+0x44>)
   81ea2:	4b09      	ldr	r3, [pc, #36]	; (81ec8 <__libc_init_array+0x48>)
   81ea4:	2400      	movs	r4, #0
   81ea6:	1aed      	subs	r5, r5, r3
   81ea8:	10ad      	asrs	r5, r5, #2
   81eaa:	461e      	mov	r6, r3
   81eac:	42ac      	cmp	r4, r5
   81eae:	d004      	beq.n	81eba <__libc_init_array+0x3a>
   81eb0:	f856 2024 	ldr.w	r2, [r6, r4, lsl #2]
   81eb4:	4790      	blx	r2
   81eb6:	3401      	adds	r4, #1
   81eb8:	e7f8      	b.n	81eac <__libc_init_array+0x2c>
   81eba:	bd70      	pop	{r4, r5, r6, pc}
   81ebc:	00082348 	.word	0x00082348
   81ec0:	00082348 	.word	0x00082348
   81ec4:	0008234c 	.word	0x0008234c
   81ec8:	00082348 	.word	0x00082348

00081ecc <memcpy>:
   81ecc:	b510      	push	{r4, lr}
   81ece:	2300      	movs	r3, #0
   81ed0:	4293      	cmp	r3, r2
   81ed2:	d003      	beq.n	81edc <memcpy+0x10>
   81ed4:	5ccc      	ldrb	r4, [r1, r3]
   81ed6:	54c4      	strb	r4, [r0, r3]
   81ed8:	3301      	adds	r3, #1
   81eda:	e7f9      	b.n	81ed0 <memcpy+0x4>
   81edc:	bd10      	pop	{r4, pc}

00081ede <_raise_r>:
   81ede:	291f      	cmp	r1, #31
   81ee0:	b538      	push	{r3, r4, r5, lr}
   81ee2:	4605      	mov	r5, r0
   81ee4:	460c      	mov	r4, r1
   81ee6:	d904      	bls.n	81ef2 <_raise_r+0x14>
   81ee8:	2316      	movs	r3, #22
   81eea:	6003      	str	r3, [r0, #0]
   81eec:	f04f 30ff 	mov.w	r0, #4294967295
   81ef0:	bd38      	pop	{r3, r4, r5, pc}
   81ef2:	6c42      	ldr	r2, [r0, #68]	; 0x44
   81ef4:	b112      	cbz	r2, 81efc <_raise_r+0x1e>
   81ef6:	f852 3021 	ldr.w	r3, [r2, r1, lsl #2]
   81efa:	b94b      	cbnz	r3, 81f10 <_raise_r+0x32>
   81efc:	4628      	mov	r0, r5
   81efe:	f000 f831 	bl	81f64 <_getpid_r>
   81f02:	4622      	mov	r2, r4
   81f04:	4601      	mov	r1, r0
   81f06:	4628      	mov	r0, r5
   81f08:	e8bd 4038 	ldmia.w	sp!, {r3, r4, r5, lr}
   81f0c:	f000 b818 	b.w	81f40 <_kill_r>
   81f10:	2b01      	cmp	r3, #1
   81f12:	d00a      	beq.n	81f2a <_raise_r+0x4c>
   81f14:	1c59      	adds	r1, r3, #1
   81f16:	d103      	bne.n	81f20 <_raise_r+0x42>
   81f18:	2316      	movs	r3, #22
   81f1a:	6003      	str	r3, [r0, #0]
   81f1c:	2001      	movs	r0, #1
   81f1e:	bd38      	pop	{r3, r4, r5, pc}
   81f20:	2500      	movs	r5, #0
   81f22:	f842 5024 	str.w	r5, [r2, r4, lsl #2]
   81f26:	4620      	mov	r0, r4
   81f28:	4798      	blx	r3
   81f2a:	2000      	movs	r0, #0
   81f2c:	bd38      	pop	{r3, r4, r5, pc}
	...

00081f30 <raise>:
   81f30:	4b02      	ldr	r3, [pc, #8]	; (81f3c <raise+0xc>)
   81f32:	4601      	mov	r1, r0
   81f34:	6818      	ldr	r0, [r3, #0]
   81f36:	f7ff bfd2 	b.w	81ede <_raise_r>
   81f3a:	bf00      	nop
   81f3c:	20000068 	.word	0x20000068

00081f40 <_kill_r>:
   81f40:	b538      	push	{r3, r4, r5, lr}
   81f42:	4c07      	ldr	r4, [pc, #28]	; (81f60 <_kill_r+0x20>)
   81f44:	2300      	movs	r3, #0
   81f46:	4605      	mov	r5, r0
   81f48:	4608      	mov	r0, r1
   81f4a:	4611      	mov	r1, r2
   81f4c:	6023      	str	r3, [r4, #0]
   81f4e:	f000 f813 	bl	81f78 <_kill>
   81f52:	1c43      	adds	r3, r0, #1
   81f54:	d102      	bne.n	81f5c <_kill_r+0x1c>
   81f56:	6823      	ldr	r3, [r4, #0]
   81f58:	b103      	cbz	r3, 81f5c <_kill_r+0x1c>
   81f5a:	602b      	str	r3, [r5, #0]
   81f5c:	bd38      	pop	{r3, r4, r5, pc}
   81f5e:	bf00      	nop
   81f60:	200002c8 	.word	0x200002c8

00081f64 <_getpid_r>:
   81f64:	f000 b800 	b.w	81f68 <_getpid>

00081f68 <_getpid>:
   81f68:	4b02      	ldr	r3, [pc, #8]	; (81f74 <_getpid+0xc>)
   81f6a:	2258      	movs	r2, #88	; 0x58
   81f6c:	601a      	str	r2, [r3, #0]
   81f6e:	f04f 30ff 	mov.w	r0, #4294967295
   81f72:	4770      	bx	lr
   81f74:	200002c8 	.word	0x200002c8

00081f78 <_kill>:
   81f78:	4b02      	ldr	r3, [pc, #8]	; (81f84 <_kill+0xc>)
   81f7a:	2258      	movs	r2, #88	; 0x58
   81f7c:	601a      	str	r2, [r3, #0]
   81f7e:	f04f 30ff 	mov.w	r0, #4294967295
   81f82:	4770      	bx	lr
   81f84:	200002c8 	.word	0x200002c8

00081f88 <_exit>:
   81f88:	e7fe      	b.n	81f88 <_exit>
   81f8a:	bf00      	nop

00081f8c <_ZL10font_small>:
   81f8c:	2840 0000 0000 0000 8000 0000 820e 81c3     @(..............
   81f9c:	a0f0 0000 4209 4326 9010 0000 0109 2182     .....B&C.......!
   81fac:	9838 9f00 0104 9101 a440 8000 8084 f910     8.......@.......
   81fbc:	a641 0000 e083 40e3 9c3c 0000 0780 2000     A......@<...... 
   81fcc:	c000 3c3e 0cc7 2000 c000 9210 0c0c 10c0     ..><... ........
   81fdc:	a060 8c08 0704 7120 bc10 1208 0183 9110     `..... q........
   81fec:	9208 1104 0001 8890 9208 8e04 20c0 7960     ............. `y
   81ffc:	9c70 3000 0200 2303 8020 0800 0206 2000     p..0...# ...... 
   8200c:	8020 3f18 0109 9100 ac10 0424 8109 5100      ..?......$....Q
   8201c:	d410 043e 870e 3080 d410 8202 4484 4890     ..>....0.....D.H
   8202c:	aa08 821c 4483 8860 aa08 0000 0000 0000     .....D`.........
   8203c:	8000 0000 0306 4000 8000 0c14 8489 f0c2     .......@........
   8204c:	a248 122c 8449 2121 9248 1124 8387 2040     H.,.I.!!H.$...@ 
   8205c:	8a24 8912 4200 1090 8624 8612 4100 1060     $....B..$....A`.
   8206c:	8258 0000 0000 0000 8000 0000 0011 0000     X...............
   8207c:	8000 1254 078a 0000 8000 0c54 0206 0000     ..T.......T.....
   8208c:	8000 042a 0102 0000 8000 0a2a 0081 0000     ..*.......*.....
   8209c:	8000 8914 03c0 0000 8000 ffff ffff ffff     ................
   820ac:	ffff ffff ffff ffff ffff ffff ffff ffff     ................
   820bc:	ffff ffff ffff ffff ffff ffff ffff ffff     ................
   820cc:	ffff                                        ..

000820ce <_ZL10font_large>:
   820ce:	4038 0000 0000 0000 0000 0000 0000 0000     8@..............
	...
   820ee:	1800 7e3c 0030 0000 3c1c 3022 0000 1e00     ..<~0....<"0....
   820fe:	1066 0030 0000 661a 3808 0000 1800 1e60     f.0....f.8....`.
   8210e:	0038 0000 6018 3830 0000 1800 2060 0038     8....`08....` 8.
   8211e:	0000 3018 3820 0000 1800 6030 0038 0000     ...0 8....0`8...
   8212e:	3018 3460 0000 1800 6018 0034 007c 1818     .0`4.....`4.|...
   8213e:	3460 3e00 1800 6018 0034 0000 0c18 3460     `4.>...`4.....`4
   8214e:	0000 1800 600c 0032 0000 0c18 3260 0000     .....`2.....`2..
   8215e:	1800 6006 0032 0000 0618 3260 0000 1800     ...`2.....`2....
   8216e:	6006 0032 0000 0618 7e60 0000 1800 6206     .`2.....`~.....b
   8217e:	007e 0000 0618 3022 0000 7e00 227e 0030     ~....."0...~~"0.
   8218e:	0000 7e7e 301c 0000 0000 0000 0000 0000     ..~~.0..........
	...
   821c2:	0000 7e00 7e00 1818 0000 4046 2c62 3c24     ...~.~....F@b,$<
   821d2:	0600 6020 4246 003c 2006 4660 6642 1e00     .. `FB<.. `FBf..
   821e2:	3010 4246 0066 1030 4630 6642 2000 1818     .0FBf.0.0FBf. ..
   821f2:	4246 0066 1820 4618 6642 6000 1808 4246     FBf. ..FBf.`..FB
   82202:	0060 0c60 4618 6064 6000 0c0c 5846 0060     `.`..Fd`.`..FX`.
   82212:	0460 460c 6040 6000 0c04 4046 0030 0660     `..F@`.`..F@0.`.
   82222:	2c0c 3040 6000 0c1e 4018 0018 2660 340c     .,@0.`...@..`&.4
   82232:	1840 6000 0c42 4062 0018 4260 620c 1840     @..`B.b@..`B.b@.
   82242:	6000 0c42 4062 0018 4260 620c 1840 6000     .`B.b@..`B.b@..`
   82252:	1c42 4062 0018 4262 620e 0044 2200 0c42     B.b@..bB.bD.."B.
   82262:	2462 0000 2422 340c 1824 1c00 0c18 1818     b$.."$.4$.......
   82272:	0018 0000 0000 0000 0000 0000 0000 0000     ................
	...

00082290 <_ZN8Encoders5bPinsE>:
   82290:	000e 0000 0000 0000 0002 0000 0006 0000     ................

000822a0 <_ZN8Encoders6aPortsE>:
   822a0:	0001 0303 0000 0000                         ........

000822a8 <_ZTV8Encoders>:
	...
   822b0:	08ed 0008 08c5 0008 08c9 0008 08cd 0008     ................
   822c0:	08e7 0008 0000 0000                         ........

000822c8 <_ZN8Encoders6bPortsE>:
   822c8:	0300 0303                                   ....

000822cc <_ZN8Encoders5aPinsE>:
   822cc:	001a 0000 000f 0000 0001 0000 0003 0000     ................
   822dc:	0000 0000                                   ....

000822e0 <_ZTV3SPI>:
	...
   822e8:	0ad9 0008 0ab9 0008 0b69 0008 0ad5 0008     ........i.......
   822f8:	0b55 0008 0000 0000                         U.......

00082300 <_ZTV7SSD1305>:
	...
   82308:	0bf9 0008 0bb1 0008 0eb1 0008 0bb5 0008     ................
   82318:	0bb9 0008 0000 0000 6568 6c6c 0a6f 6f77     ........hello.wo
   82328:	6c72 2164 0000 0000 6f6c 0067 0000 0000     rld!....log.....
   82338:	0043 0000                                   C...

0008233c <_init>:
   8233c:	b5f8      	push	{r3, r4, r5, r6, r7, lr}
   8233e:	bf00      	nop
   82340:	bcf8      	pop	{r3, r4, r5, r6, r7}
   82342:	bc08      	pop	{r3}
   82344:	469e      	mov	lr, r3
   82346:	4770      	bx	lr

00082348 <__init_array_start>:
   82348:	00080119 	.word	0x00080119

0008234c <_fini>:
   8234c:	b5f8      	push	{r3, r4, r5, r6, r7, lr}
   8234e:	bf00      	nop
   82350:	bcf8      	pop	{r3, r4, r5, r6, r7}
   82352:	bc08      	pop	{r3}
   82354:	469e      	mov	lr, r3
   82356:	4770      	bx	lr

00082358 <__fini_array_start>:
   82358:	000800f5 	.word	0x000800f5
